
lcd_tryout.elf:     file format elf32-littlenios2
lcd_tryout.elf
architecture: nios2:r1, flags 0x00000112:
EXEC_P, HAS_SYMS, D_PAGED
start address 0x00080230

Program Header:
    LOAD off    0x00001000 vaddr 0x00080000 paddr 0x00080000 align 2**12
         filesz 0x00000020 memsz 0x00000020 flags r-x
    LOAD off    0x00001020 vaddr 0x00080020 paddr 0x00080020 align 2**12
         filesz 0x00014374 memsz 0x00014374 flags r-x
    LOAD off    0x00015394 vaddr 0x00094394 paddr 0x0009df1c align 2**12
         filesz 0x00009b88 memsz 0x00009b88 flags rw-
    LOAD off    0x0001faa4 vaddr 0x000a7aa4 paddr 0x000a7aa4 align 2**12
         filesz 0x00000000 memsz 0x0001307c flags rw-

Sections:
Idx Name          Size      VMA       LMA       File off  Algn
  0 .entry        00000020  00080000  00080000  00001000  2**5
                  CONTENTS, ALLOC, LOAD, READONLY, CODE
  1 .exceptions   00000210  00080020  00080020  00001020  2**2
                  CONTENTS, ALLOC, LOAD, READONLY, CODE
  2 .text         00013d2c  00080230  00080230  00001230  2**2
                  CONTENTS, ALLOC, LOAD, READONLY, CODE
  3 .rodata       00000438  00093f5c  00093f5c  00014f5c  2**2
                  CONTENTS, ALLOC, LOAD, READONLY, DATA
  4 .rwdata       00009b88  00094394  0009df1c  00015394  2**2
                  CONTENTS, ALLOC, LOAD, DATA, SMALL_DATA
  5 .bss          0001307c  000a7aa4  000a7aa4  0001faa4  2**2
                  ALLOC, SMALL_DATA
  6 .onchip_memory2_0 00000000  000bab20  000bab20  0001ef1c  2**0
                  CONTENTS
  7 .comment      00000023  00000000  00000000  0001ef1c  2**0
                  CONTENTS, READONLY
  8 .debug_aranges 00001178  00000000  00000000  0001ef40  2**3
                  CONTENTS, READONLY, DEBUGGING
  9 .debug_info   0002b5f3  00000000  00000000  000200b8  2**0
                  CONTENTS, READONLY, DEBUGGING
 10 .debug_abbrev 0000b03e  00000000  00000000  0004b6ab  2**0
                  CONTENTS, READONLY, DEBUGGING
 11 .debug_line   0000dd14  00000000  00000000  000566e9  2**0
                  CONTENTS, READONLY, DEBUGGING
 12 .debug_frame  000029ec  00000000  00000000  00064400  2**2
                  CONTENTS, READONLY, DEBUGGING
 13 .debug_str    000044bc  00000000  00000000  00066dec  2**0
                  CONTENTS, READONLY, DEBUGGING
 14 .debug_loc    0001ac15  00000000  00000000  0006b2a8  2**0
                  CONTENTS, READONLY, DEBUGGING
 15 .debug_alt_sim_info 00000010  00000000  00000000  00085ec0  2**2
                  CONTENTS, READONLY, DEBUGGING
 16 .debug_ranges 00001df0  00000000  00000000  00085ed0  2**3
                  CONTENTS, READONLY, DEBUGGING
 17 .thread_model 00000003  00000000  00000000  0008b8de  2**0
                  CONTENTS, READONLY
 18 .cpu          0000000c  00000000  00000000  0008b8e1  2**0
                  CONTENTS, READONLY
 19 .qsys         00000001  00000000  00000000  0008b8ed  2**0
                  CONTENTS, READONLY
 20 .simulation_enabled 00000001  00000000  00000000  0008b8ee  2**0
                  CONTENTS, READONLY
 21 .stderr_dev   0000000b  00000000  00000000  0008b8ef  2**0
                  CONTENTS, READONLY
 22 .stdin_dev    0000000b  00000000  00000000  0008b8fa  2**0
                  CONTENTS, READONLY
 23 .stdout_dev   0000000b  00000000  00000000  0008b905  2**0
                  CONTENTS, READONLY
 24 .sopc_system_name 0000000e  00000000  00000000  0008b910  2**0
                  CONTENTS, READONLY
 25 .quartus_project_dir 0000003e  00000000  00000000  0008b91e  2**0
                  CONTENTS, READONLY
 26 .jdi          000057d1  00000000  00000000  0008b95c  2**0
                  CONTENTS, READONLY
 27 .sopcinfo     00042ca9  00000000  00000000  0009112d  2**0
                  CONTENTS, READONLY
SYMBOL TABLE:
00080000 l    d  .entry	00000000 .entry
00080020 l    d  .exceptions	00000000 .exceptions
00080230 l    d  .text	00000000 .text
00093f5c l    d  .rodata	00000000 .rodata
00094394 l    d  .rwdata	00000000 .rwdata
000a7aa4 l    d  .bss	00000000 .bss
000bab20 l    d  .onchip_memory2_0	00000000 .onchip_memory2_0
00000000 l    d  .comment	00000000 .comment
00000000 l    d  .debug_aranges	00000000 .debug_aranges
00000000 l    d  .debug_info	00000000 .debug_info
00000000 l    d  .debug_abbrev	00000000 .debug_abbrev
00000000 l    d  .debug_line	00000000 .debug_line
00000000 l    d  .debug_frame	00000000 .debug_frame
00000000 l    d  .debug_str	00000000 .debug_str
00000000 l    d  .debug_loc	00000000 .debug_loc
00000000 l    d  .debug_alt_sim_info	00000000 .debug_alt_sim_info
00000000 l    d  .debug_ranges	00000000 .debug_ranges
00000000 l    df *ABS*	00000000 ../lcd_tryout_bsp//obj/HAL/src/crt0.o
00080268 l       .text	00000000 alt_after_alt_main
00000000 l    df *ABS*	00000000 alt_irq_handler.c
00000000 l    df *ABS*	00000000 alt_instruction_exception_entry.c
00000000 l    df *ABS*	00000000 hello_world.c
00000000 l    df *ABS*	00000000 w_exp.c
00000000 l    df *ABS*	00000000 e_exp.c
00094078 l     O .rodata	00000010 halF
00094068 l     O .rodata	00000010 ln2HI
00094058 l     O .rodata	00000010 ln2LO
00000000 l    df *ABS*	00000000 s_finite.c
00000000 l    df *ABS*	00000000 s_lib_ver.c
00000000 l    df *ABS*	00000000 s_matherr.c
00000000 l    df *ABS*	00000000 lib2-divmod.c
00000000 l    df *ABS*	00000000 lib2-mul.c
00000000 l    df *ABS*	00000000 addsf3.c
00000000 l    df *ABS*	00000000 divsf3.c
00000000 l    df *ABS*	00000000 gesf2.c
00000000 l    df *ABS*	00000000 mulsf3.c
00000000 l    df *ABS*	00000000 fixsfsi.c
00000000 l    df *ABS*	00000000 floatsisf.c
00000000 l    df *ABS*	00000000 adddf3.c
00000000 l    df *ABS*	00000000 divdf3.c
00000000 l    df *ABS*	00000000 gedf2.c
00000000 l    df *ABS*	00000000 ledf2.c
00000000 l    df *ABS*	00000000 muldf3.c
00000000 l    df *ABS*	00000000 subdf3.c
00000000 l    df *ABS*	00000000 fixdfsi.c
00000000 l    df *ABS*	00000000 floatsidf.c
00000000 l    df *ABS*	00000000 extendsfdf2.c
00000000 l    df *ABS*	00000000 truncdfsf2.c
00000000 l    df *ABS*	00000000 libgcc2.c
00000000 l    df *ABS*	00000000 libgcc2.c
00000000 l    df *ABS*	00000000 errno.c
00000000 l    df *ABS*	00000000 fclose.c
00000000 l    df *ABS*	00000000 fflush.c
00000000 l    df *ABS*	00000000 findfp.c
000867e0 l     F .text	00000008 __fp_unlock
000867f4 l     F .text	0000019c __sinit.part.1
00086990 l     F .text	00000008 __fp_lock
00000000 l    df *ABS*	00000000 fopen.c
00000000 l    df *ABS*	00000000 mallocr.c
00000000 l    df *ABS*	00000000 fseek.c
00000000 l    df *ABS*	00000000 fseeko.c
00000000 l    df *ABS*	00000000 fstatr.c
00000000 l    df *ABS*	00000000 fwalk.c
00000000 l    df *ABS*	00000000 fwrite.c
00000000 l    df *ABS*	00000000 impure.c
0009c3fc l     O .rwdata	00000424 impure_data
00000000 l    df *ABS*	00000000 int_errno.c
00000000 l    df *ABS*	00000000 makebuf.c
00000000 l    df *ABS*	00000000 mallocr.c
00000000 l    df *ABS*	00000000 memset.c
00000000 l    df *ABS*	00000000 openr.c
00000000 l    df *ABS*	00000000 printf.c
00000000 l    df *ABS*	00000000 puts.c
00000000 l    df *ABS*	00000000 refill.c
000884d4 l     F .text	0000001c lflush
00000000 l    df *ABS*	00000000 sbrkr.c
00000000 l    df *ABS*	00000000 stdio.c
00000000 l    df *ABS*	00000000 strlen.c
00000000 l    df *ABS*	00000000 vfprintf.c
000941d2 l     O .rodata	00000010 zeroes.4404
0008abe4 l     F .text	000000bc __sbprintf
000941e2 l     O .rodata	00000010 blanks.4403
00000000 l    df *ABS*	00000000 writer.c
00000000 l    df *ABS*	00000000 wsetup.c
00000000 l    df *ABS*	00000000 closer.c
00000000 l    df *ABS*	00000000 dtoa.c
0008aea8 l     F .text	00000228 quorem
00000000 l    df *ABS*	00000000 flags.c
00000000 l    df *ABS*	00000000 fvwrite.c
00000000 l    df *ABS*	00000000 isattyr.c
00000000 l    df *ABS*	00000000 locale.c
0009cc48 l     O .rwdata	00000020 lc_ctype_charset
0009cc28 l     O .rwdata	00000020 lc_message_charset
0009cc68 l     O .rwdata	00000038 lconv
00000000 l    df *ABS*	00000000 lseekr.c
00000000 l    df *ABS*	00000000 memchr.c
00000000 l    df *ABS*	00000000 memcpy.c
00000000 l    df *ABS*	00000000 memmove.c
00000000 l    df *ABS*	00000000 mprec.c
00094210 l     O .rodata	0000000c p05.2768
00000000 l    df *ABS*	00000000 readr.c
00000000 l    df *ABS*	00000000 mallocr.c
00000000 l    df *ABS*	00000000 s_fpclassify.c
00000000 l    df *ABS*	00000000 strcmp.c
00000000 l    df *ABS*	00000000 vfprintf.c
0008e9b0 l     F .text	000000fc __sprint_r.part.0
00094334 l     O .rodata	00000010 zeroes.4349
0008ffec l     F .text	000000bc __sbprintf
00094344 l     O .rodata	00000010 blanks.4348
00000000 l    df *ABS*	00000000 mallocr.c
00000000 l    df *ABS*	00000000 fputwc.c
00000000 l    df *ABS*	00000000 wbuf.c
00000000 l    df *ABS*	00000000 wcrtomb.c
00000000 l    df *ABS*	00000000 wctomb_r.c
00000000 l    df *ABS*	00000000 libgcc2.c
00000000 l    df *ABS*	00000000 libgcc2.c
00000000 l    df *ABS*	00000000 eqdf2.c
00000000 l    df *ABS*	00000000 floatunsidf.c
00000000 l    df *ABS*	00000000 alt_close.c
000913bc l     F .text	0000003c alt_get_errno
00000000 l    df *ABS*	00000000 alt_dev.c
000914d0 l     F .text	0000002c alt_dev_null_write
00000000 l    df *ABS*	00000000 alt_errno.c
00000000 l    df *ABS*	00000000 alt_fstat.c
000914fc l     F .text	0000003c alt_get_errno
00000000 l    df *ABS*	00000000 alt_isatty.c
000915f0 l     F .text	0000003c alt_get_errno
00000000 l    df *ABS*	00000000 alt_load.c
000916d8 l     F .text	00000068 alt_load_section
00000000 l    df *ABS*	00000000 alt_lseek.c
000917c4 l     F .text	0000003c alt_get_errno
00000000 l    df *ABS*	00000000 alt_main.c
00000000 l    df *ABS*	00000000 alt_malloc_lock.c
00000000 l    df *ABS*	00000000 alt_open.c
000919a0 l     F .text	0000003c alt_get_errno
000919dc l     F .text	000000ec alt_file_locked
00000000 l    df *ABS*	00000000 alt_read.c
00091c24 l     F .text	0000003c alt_get_errno
00000000 l    df *ABS*	00000000 alt_release_fd.c
00000000 l    df *ABS*	00000000 alt_sbrk.c
0009df0c l     O .rwdata	00000004 heap_end
00000000 l    df *ABS*	00000000 alt_write.c
00091e98 l     F .text	0000003c alt_get_errno
00000000 l    df *ABS*	00000000 alt_sys_init.c
00091fd4 l     F .text	00000034 alt_dev_reg
0009ce48 l     O .rwdata	00001060 jtag_uart_0
0009dea8 l     O .rwdata	0000002c lcd_0
00000000 l    df *ABS*	00000000 altera_avalon_jtag_uart_fd.c
00000000 l    df *ABS*	00000000 altera_avalon_jtag_uart_init.c
000922c4 l     F .text	0000020c altera_avalon_jtag_uart_irq
000924d0 l     F .text	000000a0 altera_avalon_jtag_uart_timeout
00000000 l    df *ABS*	00000000 altera_avalon_jtag_uart_ioctl.c
00000000 l    df *ABS*	00000000 altera_avalon_jtag_uart_read.c
00000000 l    df *ABS*	00000000 altera_avalon_jtag_uart_write.c
00000000 l    df *ABS*	00000000 altera_up_avalon_character_lcd.c
00000000 l    df *ABS*	00000000 alt_alarm_start.c
00000000 l    df *ABS*	00000000 alt_dcache_flush_all.c
00000000 l    df *ABS*	00000000 alt_dev_llist_insert.c
00093148 l     F .text	0000003c alt_get_errno
00000000 l    df *ABS*	00000000 alt_do_ctors.c
00000000 l    df *ABS*	00000000 alt_do_dtors.c
00000000 l    df *ABS*	00000000 alt_find_dev.c
00000000 l    df *ABS*	00000000 alt_find_file.c
00000000 l    df *ABS*	00000000 alt_get_fd.c
00000000 l    df *ABS*	00000000 alt_icache_flush_all.c
00000000 l    df *ABS*	00000000 alt_iic.c
00000000 l    df *ABS*	00000000 alt_iic_isr_register.c
00000000 l    df *ABS*	00000000 alt_io_redirect.c
00093804 l     F .text	000000e4 alt_open_fd
00000000 l    df *ABS*	00000000 alt_irq_vars.c
00000000 l    df *ABS*	00000000 alt_tick.c
00000000 l    df *ABS*	00000000 altera_nios2_gen2_irq.c
00000000 l    df *ABS*	00000000 atexit.c
00000000 l    df *ABS*	00000000 exit.c
00000000 l    df *ABS*	00000000 memcmp.c
00000000 l    df *ABS*	00000000 __atexit.c
00000000 l    df *ABS*	00000000 __call_atexit.c
00000000 l    df *ABS*	00000000 alt_exit.c
000a7ae4 g     O .bss	00000004 alt_instruction_exception_handler
0008e124 g     F .text	00000074 _mprec_log10
0008e210 g     F .text	0000008c __any_on
0008cccc g     F .text	00000054 _isatty_r
0009421c g     O .rodata	00000028 __mprec_tinytens
000918dc g     F .text	0000007c alt_main
00088400 g     F .text	000000c0 _puts_r
000baa20 g     O .bss	00000100 alt_irq
0008cdfc g     F .text	00000060 _lseek_r
0009df1c g       *ABS*	00000000 __flash_rwdata_start
00092b7c g     F .text	00000040 alt_up_character_lcd_send_cmd
0008c758 g     F .text	000000ac __sflags
0009128c g     F .text	00000088 .hidden __eqdf2
0008026c g     F .text	000000f8 Format_Conv1_W
0009ac0c g     O .rwdata	00000500 Fc2_W_raw
000bab20 g       *ABS*	00000000 __alt_heap_start
000883c4 g     F .text	0000003c printf
000904e4 g     F .text	0000009c _wcrtomb_r
000887f0 g     F .text	0000005c __sseek
00086b40 g     F .text	00000010 __sinit
0009038c g     F .text	00000140 __swbuf_r
0009bd4c g     O .rwdata	00000691 Image_Mask
0008cd20 g     F .text	0000007c _setlocale_r
00086998 g     F .text	00000078 __sfmoreglue
0009197c g     F .text	00000024 __malloc_unlock
000943b4 g     O .rwdata	00000010 Conv2_B
00082f38 g     F .text	00000440 .hidden __divsf3
000a7b10 g     O .bss	00000028 Softmax
0008d088 g     F .text	0000015c memmove
00086b28 g     F .text	00000018 _cleanup
00080364 g     F .text	0000013c Format_Conv2_W
0008d1e4 g     F .text	000000a8 _Balloc
00083864 g     F .text	00000070 .hidden __fixsfsi
00094444 g     O .rwdata	00000028 Fc2_B
00084c74 g     F .text	000000dc .hidden __gtdf2
00093b08 g     F .text	00000024 altera_nios2_gen2_irq_init
00086424 g     F .text	00000010 __errno
00092b08 g     F .text	00000074 get_DDRAM_addr
00094394 g     O .rwdata	00000020 Conv1_B
00080000 g     F .entry	0000000c __reset
00080020 g       *ABS*	00000000 __flash_exceptions_start
0009c3e0 g     O .rwdata	0000000a str_ans
00087550 g     F .text	0000005c _fstat_r
000a7ab0 g     O .bss	00000004 errno
0008876c g     F .text	00000008 __seofread
000a7ad0 g     O .bss	00000004 alt_argv
000a5ed4 g       *ABS*	00000000 _gp
000a7b38 g     O .bss	00001880 Pool1_Image
0009ccc8 g     O .rwdata	00000180 alt_fd_list
000932e8 g     F .text	00000090 alt_find_dev
0008cf40 g     F .text	00000148 memcpy
00092d24 g     F .text	00000050 alt_up_character_lcd_write_fd
000867e8 g     F .text	0000000c _cleanup_r
0008602c g     F .text	000000dc .hidden __floatsidf
000938e8 g     F .text	0000007c alt_io_redirect
00084d50 g     F .text	000000f4 .hidden __ltdf2
00093f5c g       *ABS*	00000000 __DTOR_END__
000884c0 g     F .text	00000014 puts
00093b2c g     F .text	0000009c alt_exception_cause_generated_bad_addr
0008e860 g     F .text	00000074 __fpclassifyd
0008e080 g     F .text	000000a4 __ratio
0008ffd0 g     F .text	0000001c __vfiprintf_internal
000926c8 g     F .text	0000021c altera_avalon_jtag_uart_read
00088394 g     F .text	00000030 _printf_r
00080000 g       *ABS*	00000000 __alt_mem_onchip_memory2_0
0008298c g     F .text	00000064 .hidden __udivsi3
0009162c g     F .text	000000ac isatty
000a93b8 g     O .bss	00006200 Conv1_Image
00080cdc g     F .text	000002b4 Conv2
0009426c g     O .rodata	000000c8 __mprec_tens
0008cd9c g     F .text	0000000c __locale_charset
000a7abc g     O .bss	00000004 __malloc_top_pad
0009deec g     O .rwdata	00000004 __mb_cur_max
0008cdcc g     F .text	0000000c _localeconv_r
0008d618 g     F .text	0000003c __i2b
0008c804 g     F .text	000004c8 __sfvwrite_r
000886c4 g     F .text	00000054 _sbrk_r
0008e29c g     F .text	00000060 _read_r
0009b10c g     O .rwdata	00000c40 Input_Image_raw
0009df04 g     O .rwdata	00000004 alt_max_fd
00086434 g     F .text	000000f0 _fclose_r
000867b0 g     F .text	00000030 fflush
000a7ab8 g     O .bss	00000004 __malloc_max_sbrked_mem
00086108 g     F .text	00000110 .hidden __extendsfdf2
000af5b8 g     O .bss	00000c40 sum_value
000839f8 g     F .text	000008ac .hidden __adddf3
0008de28 g     F .text	0000010c __b2d
00090cc8 g     F .text	000005c4 .hidden __umoddi3
00091800 g     F .text	000000dc lseek
0009ded8 g     O .rwdata	00000004 __fdlib_version
0009dedc g     O .rwdata	00000004 _global_impure_ptr
0008e2fc g     F .text	00000564 _realloc_r
000bab20 g       *ABS*	00000000 __bss_end
00093714 g     F .text	000000f0 alt_iic_isr_register
00082388 g     F .text	000004e8 __ieee754_exp
00093a00 g     F .text	00000108 alt_tick
000906cc g     F .text	000005fc .hidden __udivdi3
000b01f8 g     O .bss	00000120 Conv1_W
000902e8 g     F .text	00000024 _fputwc_r
00094244 g     O .rodata	00000028 __mprec_bigtens
0008d3fc g     F .text	00000104 __s2b
00091314 g     F .text	000000a8 .hidden __floatunsidf
0008db68 g     F .text	00000060 __mcmp
00086b60 g     F .text	00000018 __fp_lock_all
000936c8 g     F .text	0000004c alt_ic_irq_enabled
000812fc g     F .text	00000148 Fc1
00093964 g     F .text	0000009c alt_alarm_stop
000a7ad8 g     O .bss	00000004 alt_irq_active
000870f0 g     F .text	00000444 _fseeko_r
000800fc g     F .exceptions	000000d4 alt_irq_handler
0009cca0 g     O .rwdata	00000028 alt_dev_null
00092fc4 g     F .text	00000038 alt_up_character_lcd_cursor_blink_on
00093128 g     F .text	00000020 alt_dcache_flush_all
0008d500 g     F .text	00000068 __hi0bits
00085fac g     F .text	00000080 .hidden __fixdfsi
0009df1c g       *ABS*	00000000 __ram_rwdata_end
0009defc g     O .rwdata	00000008 alt_dev_list
00091ed4 g     F .text	00000100 write
000811dc g     F .text	00000120 Flatten
00083378 g     F .text	000000bc .hidden __gtsf2
00094394 g       *ABS*	00000000 __ram_rodata_end
00091538 g     F .text	000000b8 fstat
00084d50 g     F .text	000000f4 .hidden __ledf2
000b0318 g     O .bss	00001000 capturedImage
0008d8e0 g     F .text	00000140 __pow5mult
0008eac4 g     F .text	0000150c ___vfiprintf_internal_r
000a7ac8 g     O .bss	00000004 __nlocale_changed
000829f0 g     F .text	00000058 .hidden __umodsi3
00080708 g     F .text	0000004c CNN_MNIST_recognition
000bab20 g       *ABS*	00000000 end
00087534 g     F .text	0000001c fseeko
000870d4 g     F .text	0000001c fseek
00092204 g     F .text	000000c0 altera_avalon_jtag_uart_init
00080f90 g     F .text	0000024c MaxPool2
000801d0 g     F .exceptions	00000060 alt_instruction_exception_entry
00093f5c g       *ABS*	00000000 __CTOR_LIST__
000d5730 g       *ABS*	00000000 __alt_stack_pointer
000863c0 g     F .text	00000064 .hidden __clzsi2
000928e4 g     F .text	00000224 altera_avalon_jtag_uart_write
000b1318 g     O .bss	00000c40 sum_n
00086b50 g     F .text	00000004 __sfp_lock_acquire
0008ce5c g     F .text	000000e4 memchr
00092c30 g     F .text	0000007c alt_up_character_lcd_write
000888ec g     F .text	000022dc ___vfprintf_internal_r
00086dc0 g     F .text	00000310 _free_r
0008cda8 g     F .text	00000010 __locale_mb_cur_max
00093da8 g     F .text	00000180 __call_exitprocs
000943c4 g     O .rwdata	00000080 Fc1_B
000b1f58 g     O .bss	00000028 FC2_Image
000a7ac4 g     O .bss	00000004 __mlocale_changed
0009dee4 g     O .rwdata	00000004 __malloc_sbrk_base
00080230 g     F .text	0000003c _start
000a7adc g     O .bss	00000004 _alt_tick_rate
0008da20 g     F .text	00000148 __lshift
000a7ae0 g     O .bss	00000004 _alt_nticks
00080754 g     F .text	00000038 Load_All
00091c60 g     F .text	00000104 read
00092040 g     F .text	00000060 alt_sys_init
00092e74 g     F .text	0000008c alt_up_character_lcd_shift_display
000838d4 g     F .text	00000124 .hidden __floatsisf
00088334 g     F .text	00000060 _open_r
00093c90 g     F .text	00000118 __register_exitproc
0008d654 g     F .text	0000028c __multiply
00092f00 g     F .text	0000008c alt_up_character_lcd_erase_pos
00092570 g     F .text	00000068 altera_avalon_jtag_uart_close
00082a48 g     F .text	00000028 .hidden __mulsi3
00094394 g       *ABS*	00000000 __ram_rwdata_start
00093f5c g       *ABS*	00000000 __ram_rodata_start
000a7ae8 g     O .bss	00000028 __malloc_current_mallinfo
0008df34 g     F .text	0000014c __d2b
000920a0 g     F .text	00000060 altera_avalon_jtag_uart_read_fd
00093480 g     F .text	000000c4 alt_get_fd
0008ae54 g     F .text	00000054 _close_r
000809fc g     F .text	000000a8 max
0009ded4 g     O .rwdata	00000004 pChar162
00093c14 g     F .text	0000007c memcmp
00092160 g     F .text	00000050 altera_avalon_jtag_uart_close_fd
000bab20 g       *ABS*	00000000 __alt_stack_base
000921b0 g     F .text	00000054 altera_avalon_jtag_uart_ioctl_fd
00087734 g     F .text	000000dc _fwrite_r
00081920 g     F .text	000006ec Recognition
000a7aa8 g     O .bss	00000004 subop
0008ad00 g     F .text	00000154 __swsetup_r
000842a4 g     F .text	000009d0 .hidden __divdf3
00086a10 g     F .text	00000118 __sfp
0008e198 g     F .text	00000078 __copybits
0009c820 g     O .rwdata	00000408 __malloc_av_
00086b5c g     F .text	00000004 __sinit_lock_release
00084e44 g     F .text	0000086c .hidden __muldf3
00088718 g     F .text	00000054 __sread
000b1f80 g     O .bss	00000c40 Input_Image
00093378 g     F .text	00000108 alt_find_file
00093184 g     F .text	000000a4 alt_dev_llist_insert
00091958 g     F .text	00000024 __malloc_lock
00091de8 g     F .text	000000b0 sbrk
0009c3ec g     O .rwdata	0000000e str_pro
00086754 g     F .text	0000005c _fflush_r
000900a8 g     F .text	000000dc _calloc_r
00086c84 g     F .text	00000018 fopen
000a7aa4 g       *ABS*	00000000 __bss_start
0008820c g     F .text	00000128 memset
0008200c g     F .text	000001ec main
000b2bc0 g     O .bss	00000480 Conv2_W
000a7ad4 g     O .bss	00000004 alt_envp
000a7ab4 g     O .bss	00000004 __malloc_max_total_mem
000a7aac g     O .bss	00000001 recognize_flag
00092100 g     F .text	00000060 altera_avalon_jtag_uart_write_fd
0008062c g     F .text	000000dc Format_InputImage
000904cc g     F .text	00000018 __swbuf
00094a0c g     O .rwdata	00006200 Fc1_W_raw
00092de8 g     F .text	0000008c alt_up_character_lcd_shift_cursor
0008884c g     F .text	00000008 __sclose
0008288c g     F .text	00000008 matherr
000d5730 g       *ABS*	00000000 __alt_heap_limit
00086524 g     F .text	00000014 fclose
00086218 g     F .text	000001a8 .hidden __truncdfsf2
0008b0d0 g     F .text	00001688 _dtoa_r
00087a00 g     F .text	0000080c _malloc_r
00090640 g     F .text	00000030 __ascii_wctomb
0009df08 g     O .rwdata	00000004 alt_errno
0009446c g     O .rwdata	00000120 Conv1_W_raw
000875ac g     F .text	000000c4 _fwalk
000b3040 g     O .bss	00000310 Flat_Image
000821f8 g     F .text	00000190 exp
00082894 g     F .text	00000084 .hidden __divsi3
00092bf4 g     F .text	0000003c alt_up_character_lcd_open_dev
00086c9c g     F .text	00000124 _malloc_trim_r
00093f5c g       *ABS*	00000000 __CTOR_END__
00083434 g     F .text	00000430 .hidden __mulsf3
00082870 g     F .text	0000001c finite
00092bbc g     F .text	00000038 alt_up_character_lcd_init
0008e8d4 g     F .text	000000dc strcmp
00093f5c g       *ABS*	00000000 __flash_rodata_start
00093f5c g       *ABS*	00000000 __DTOR_LIST__
0009128c g     F .text	00000088 .hidden __nedf2
00092008 g     F .text	00000038 alt_irq_init
00091d64 g     F .text	00000084 alt_release_fd
00092f8c g     F .text	00000038 alt_up_character_lcd_cursor_off
00094088 g     O .rodata	00000100 .hidden __clz_tab
000a7ac0 g     O .bss	00000004 _PathLocale
00093bc8 g     F .text	00000014 atexit
00083378 g     F .text	000000bc .hidden __gesf2
0009458c g     O .rwdata	00000480 Conv2_W_raw
0008aca0 g     F .text	00000060 _write_r
0008cdd8 g     F .text	00000018 setlocale
0009dee0 g     O .rwdata	00000004 _impure_ptr
000a7acc g     O .bss	00000004 alt_argc
00086538 g     F .text	0000021c __sflush_r
00093288 g     F .text	00000060 _do_dtors
0008cdc4 g     F .text	00000008 __locale_cjk_lang
000870d0 g     F .text	00000004 _fseek_r
000884f0 g     F .text	000001d4 __srefill_r
00080020 g       .exceptions	00000000 alt_irq_entry
000b3350 g     O .bss	00000080 FC1_Image
0008ddc4 g     F .text	00000064 __ulp
00086b78 g     F .text	00000018 __fp_unlock_all
000b33d0 g     O .bss	00006200 Fc1_W
0009def4 g     O .rwdata	00000008 alt_fs_list
000a7aa4 g     O .bss	00000004 ans
00080020 g       *ABS*	00000000 __ram_exceptions_start
0008cdf0 g     F .text	0000000c localeconv
00093564 g     F .text	00000050 alt_ic_isr_register
00087810 g     F .text	00000034 fwrite
00081588 g     F .text	00000398 Get_Answer
0009df1c g       *ABS*	00000000 _edata
000bab20 g       *ABS*	00000000 _end
000804a0 g     F .text	000000b0 Format_Fc1_W
00090184 g     F .text	00000164 __fputwc
00080230 g       *ABS*	00000000 __ram_exceptions_end
000925d8 g     F .text	000000f0 altera_avalon_jtag_uart_ioctl
00080aa4 g     F .text	00000238 MaxPool1
000b95d0 g     O .bss	00000500 Fc2_W
0009363c g     F .text	0000008c alt_ic_irq_disable
00088774 g     F .text	0000007c __swrite
0009dee8 g     O .rwdata	00000004 __malloc_trim_threshold
0008cdb8 g     F .text	0000000c __locale_msgcharset
00093bdc g     F .text	00000038 exit
00087670 g     F .text	000000c4 _fwalk_reent
0008dbc8 g     F .text	000001fc __mdiff
000b9ad0 g     O .bss	00000c40 Conv2_Image
00082918 g     F .text	00000074 .hidden __modsi3
000d5730 g       *ABS*	00000000 __alt_data_end
00080020 g     F .exceptions	00000000 alt_exception
00086b54 g     F .text	00000004 __sfp_lock_release
00092cac g     F .text	00000078 alt_up_character_lcd_string
000ba710 g     O .bss	00000310 Pool2_Image
00086b90 g     F .text	000000f4 _fopen_r
00093f28 g     F .text	00000034 _exit
00092ffc g     F .text	0000012c alt_alarm_start
00087844 g     F .text	000001bc __smakebuf_r
00088854 g     F .text	00000098 strlen
00091ac8 g     F .text	0000015c open
00084c74 g     F .text	000000dc .hidden __gedf2
0008078c g     F .text	00000270 Conv1
0009def0 g     O .rwdata	00000004 __wctomb
0008eaac g     F .text	00000018 __sprint_r
00093544 g     F .text	00000020 alt_icache_flush_all
00092d74 g     F .text	00000074 alt_up_character_lcd_set_cursor_pos
0009df10 g     O .rwdata	00000004 alt_priority_mask
000935b4 g     F .text	00000088 alt_ic_irq_enable
0008abc8 g     F .text	0000001c __vfprintf_internal
00090670 g     F .text	0000005c _wctomb_r
000856b0 g     F .text	000008fc .hidden __subdf3
0008d568 g     F .text	000000b0 __lo0bits
0009df14 g     O .rwdata	00000008 alt_alarm_list
00093228 g     F .text	00000060 _do_ctors
00090580 g     F .text	000000c0 wcrtomb
00081444 g     F .text	00000144 Fc2
000913f8 g     F .text	000000d8 close
00082a70 g     F .text	000004c8 .hidden __addsf3
00080550 g     F .text	000000dc Format_Fc2_W
00091740 g     F .text	00000084 alt_load
0009030c g     F .text	00000080 fputwc
00086b58 g     F .text	00000004 __sinit_lock_acquire
0008d2b4 g     F .text	00000148 __multadd
0008d28c g     F .text	00000028 _Bfree



Disassembly of section .entry:

00080000 <__reset>:
 * Jump to the _start entry point in the .text section if reset code
 * is allowed or if optimizing for RTL simulation.
 */
#if defined(ALT_ALLOW_CODE_AT_RESET) || defined(ALT_SIM_OPTIMIZE)
    /* Jump to the _start entry point in the .text section. */
    movhi r1, %hi(_start)
   80000:	00400234 	movhi	at,8
    ori r1, r1, %lo(_start)
   80004:	08408c14 	ori	at,at,560
    jmp r1
   80008:	0800683a 	jmp	at
	...

Disassembly of section .exceptions:

00080020 <alt_exception>:

#else /* ALT_EXCEPTION_STACK disabled */
        /* 
         * Reserve space on normal stack for registers about to be pushed.
         */
        addi  sp, sp, -76
   80020:	deffed04 	addi	sp,sp,-76
         * documentation for details).
         *
         * Leave a gap in the stack frame at 4(sp) for the muldiv handler to
         * store zero into.
         */
        stw   ra,  0(sp)
   80024:	dfc00015 	stw	ra,0(sp)
        stw   r1,   8(sp)
   80028:	d8400215 	stw	at,8(sp)
        stw   r2,  12(sp)
   8002c:	d8800315 	stw	r2,12(sp)
        stw   r3,  16(sp)
   80030:	d8c00415 	stw	r3,16(sp)
        stw   r4,  20(sp)
   80034:	d9000515 	stw	r4,20(sp)
        stw   r5,  24(sp)
   80038:	d9400615 	stw	r5,24(sp)
        stw   r6,  28(sp)
   8003c:	d9800715 	stw	r6,28(sp)
        stw   r7,  32(sp)
   80040:	d9c00815 	stw	r7,32(sp)
        rdctl r5, estatus   /* Read early to avoid usage stall */
   80044:	000b307a 	rdctl	r5,estatus
        stw   r8,  36(sp)
   80048:	da000915 	stw	r8,36(sp)
        stw   r9,  40(sp)
   8004c:	da400a15 	stw	r9,40(sp)
        stw   r10, 44(sp)
   80050:	da800b15 	stw	r10,44(sp)
        stw   r11, 48(sp)
   80054:	dac00c15 	stw	r11,48(sp)
        stw   r12, 52(sp)
   80058:	db000d15 	stw	r12,52(sp)
        stw   r13, 56(sp)
   8005c:	db400e15 	stw	r13,56(sp)
        stw   r14, 60(sp)
   80060:	db800f15 	stw	r14,60(sp)
        stw   r15, 64(sp)
   80064:	dbc01015 	stw	r15,64(sp)
        /*
         * ea-4 contains the address of the instruction being executed
         * when the exception occured. For interrupt exceptions, we will
         * will be re-issue the isntruction. Store it in 72(sp)
         */
        stw   r5,  68(sp)  /* estatus */
   80068:	d9401115 	stw	r5,68(sp)
        addi  r15, ea, -4  /* instruction that caused exception */
   8006c:	ebffff04 	addi	r15,ea,-4
        stw   r15,  72(sp)
   80070:	dbc01215 	stw	r15,72(sp)
#else
        /*
         * Test to see if the exception was a software exception or caused 
         * by an external interrupt, and vector accordingly.
         */
        rdctl r4, ipending
   80074:	0009313a 	rdctl	r4,ipending
        andi  r2, r5, 1
   80078:	2880004c 	andi	r2,r5,1
        beq   r2, zero, .Lnot_irq
   8007c:	10000326 	beq	r2,zero,8008c <alt_exception+0x6c>
        beq   r4, zero, .Lnot_irq
   80080:	20000226 	beq	r4,zero,8008c <alt_exception+0x6c>
        /*
         * Now that all necessary registers have been preserved, call 
         * alt_irq_handler() to process the interrupts.
         */

        call alt_irq_handler
   80084:	00800fc0 	call	800fc <alt_irq_handler>

        .section .exceptions.irqreturn, "xa"

        br    .Lexception_exit
   80088:	00000706 	br	800a8 <alt_exception+0x88>
         * upon completion, so we write ea (address of instruction *after*
         * the one where the exception occured) into 72(sp). The actual
         * instruction that caused the exception is written in r2, which these
         * handlers will utilize.
         */
        stw ea, 72(sp) /* EA is PC+4 so will skip over instruction causing exception */
   8008c:	df401215 	stw	ea,72(sp)
.Lunknown_16bit:
        addi.n r4, r4, 2 /* Need PC+2 to skip over instruction causing exception */
        stw r4, 72(sp)

#else /* CDX is not Enabled and all instructions are 32bits */
        ldw r2, -4(ea) /* Instruction value that caused exception */
   80090:	e8bfff17 	ldw	r2,-4(ea)
         * debugger is present) or go into an infinite loop since the
         * handling behavior is undefined; in that case we will not return here.
         */

        /* Load exception-causing address as first argument (r4) */
        addi   r4, ea, -4
   80094:	e93fff04 	addi	r4,ea,-4

        /* Call the instruction-exception entry */
        call   alt_instruction_exception_entry
   80098:	00801d00 	call	801d0 <alt_instruction_exception_entry>
         * instruction
         *
         * Return code was 0: Skip. The instruction after the exception is
         * already stored in 72(sp).
         */
        bne   r2, r0, .Lexception_exit
   8009c:	1000021e 	bne	r2,zero,800a8 <alt_exception+0x88>

        /*
         * Otherwise, modify 72(sp) to re-issue the instruction that caused the
         * exception.
         */
        addi  r15, ea, -4  /* instruction that caused exception */
   800a0:	ebffff04 	addi	r15,ea,-4
        stw   r15,  72(sp)
   800a4:	dbc01215 	stw	r15,72(sp)
        /* 
         * Restore the saved registers, so that all general purpose registers 
         * have been restored to their state at the time the interrupt occured.
         */

        ldw   r5,  68(sp)
   800a8:	d9401117 	ldw	r5,68(sp)
        ldw   ea,  72(sp)  /* This becomes the PC once eret is executed */
   800ac:	df401217 	ldw	ea,72(sp)
        ldw   ra,   0(sp)
   800b0:	dfc00017 	ldw	ra,0(sp)

        wrctl estatus, r5
   800b4:	2801707a 	wrctl	estatus,r5

        ldw   r1,   8(sp)
   800b8:	d8400217 	ldw	at,8(sp)
        ldw   r2,  12(sp)
   800bc:	d8800317 	ldw	r2,12(sp)
        ldw   r3,  16(sp)
   800c0:	d8c00417 	ldw	r3,16(sp)
        ldw   r4,  20(sp)
   800c4:	d9000517 	ldw	r4,20(sp)
        ldw   r5,  24(sp)
   800c8:	d9400617 	ldw	r5,24(sp)
        ldw   r6,  28(sp)
   800cc:	d9800717 	ldw	r6,28(sp)
        ldw   r7,  32(sp)
   800d0:	d9c00817 	ldw	r7,32(sp)

#if defined(ALT_EXCEPTION_STACK) && defined(ALT_STACK_CHECK)
        ldw   et, %gprel(alt_exception_old_stack_limit)(gp)
#endif

        ldw   r8,  36(sp)
   800d4:	da000917 	ldw	r8,36(sp)
        ldw   r9,  40(sp)
   800d8:	da400a17 	ldw	r9,40(sp)
        ldw   r10, 44(sp)
   800dc:	da800b17 	ldw	r10,44(sp)
        ldw   r11, 48(sp)
   800e0:	dac00c17 	ldw	r11,48(sp)
        ldw   r12, 52(sp)
   800e4:	db000d17 	ldw	r12,52(sp)
        ldw   r13, 56(sp)
   800e8:	db400e17 	ldw	r13,56(sp)
        ldw   r14, 60(sp)
   800ec:	db800f17 	ldw	r14,60(sp)
        ldw   r15, 64(sp)
   800f0:	dbc01017 	ldw	r15,64(sp)
        stw   et, %gprel(alt_stack_limit_value)(gp)
        stw   zero, %gprel(alt_exception_old_stack_limit)(gp)
#endif /* ALT_STACK_CHECK */
        ldw   sp,  76(sp)
#else /* ALT_EXCEPTION_STACK disabled */
        addi  sp, sp, 76
   800f4:	dec01304 	addi	sp,sp,76

        /*
         * Return to the interrupted instruction.
         */

        eret
   800f8:	ef80083a 	eret

000800fc <alt_irq_handler>:
 * instruction is present if the macro ALT_CI_INTERRUPT_VECTOR defined.
 */

void alt_irq_handler (void) __attribute__ ((section (".exceptions")));
void alt_irq_handler (void)
{
   800fc:	defff904 	addi	sp,sp,-28
   80100:	dfc00615 	stw	ra,24(sp)
   80104:	df000515 	stw	fp,20(sp)
   80108:	df000504 	addi	fp,sp,20
  
  /*
   * Notify the operating system that we are at interrupt level.
   */ 
  
  ALT_OS_INT_ENTER();
   8010c:	0001883a 	nop
#ifndef NIOS2_EIC_PRESENT
static ALT_INLINE alt_u32 ALT_ALWAYS_INLINE alt_irq_pending (void)
{
  alt_u32 active;

  NIOS2_READ_IPENDING (active);
   80110:	0005313a 	rdctl	r2,ipending
   80114:	e0bffe15 	stw	r2,-8(fp)

  return active;
   80118:	e0bffe17 	ldw	r2,-8(fp)
   * Consider the case where the high priority interupt is asserted during
   * the interrupt entry sequence for a lower priority interrupt to see why
   * this is the case.
   */

  active = alt_irq_pending ();
   8011c:	e0bffb15 	stw	r2,-20(fp)

  do
  {
    i = 0;
   80120:	e03ffd15 	stw	zero,-12(fp)
    mask = 1;
   80124:	00800044 	movi	r2,1
   80128:	e0bffc15 	stw	r2,-16(fp)
     * called to clear the interrupt condition.
     */

    do
    {
      if (active & mask)
   8012c:	e0fffb17 	ldw	r3,-20(fp)
   80130:	e0bffc17 	ldw	r2,-16(fp)
   80134:	1884703a 	and	r2,r3,r2
   80138:	10001426 	beq	r2,zero,8018c <alt_irq_handler+0x90>
      { 
#ifdef ALT_ENHANCED_INTERRUPT_API_PRESENT
        alt_irq[i].handler(alt_irq[i].context); 
   8013c:	00800334 	movhi	r2,12
   80140:	10aa8804 	addi	r2,r2,-21984
   80144:	e0fffd17 	ldw	r3,-12(fp)
   80148:	180690fa 	slli	r3,r3,3
   8014c:	10c5883a 	add	r2,r2,r3
   80150:	10c00017 	ldw	r3,0(r2)
   80154:	00800334 	movhi	r2,12
   80158:	10aa8804 	addi	r2,r2,-21984
   8015c:	e13ffd17 	ldw	r4,-12(fp)
   80160:	200890fa 	slli	r4,r4,3
   80164:	1105883a 	add	r2,r2,r4
   80168:	10800104 	addi	r2,r2,4
   8016c:	10800017 	ldw	r2,0(r2)
   80170:	1009883a 	mov	r4,r2
   80174:	183ee83a 	callr	r3
#else
        alt_irq[i].handler(alt_irq[i].context, i); 
#endif
        break;
   80178:	0001883a 	nop
#ifndef NIOS2_EIC_PRESENT
static ALT_INLINE alt_u32 ALT_ALWAYS_INLINE alt_irq_pending (void)
{
  alt_u32 active;

  NIOS2_READ_IPENDING (active);
   8017c:	0005313a 	rdctl	r2,ipending
   80180:	e0bfff15 	stw	r2,-4(fp)

  return active;
   80184:	e0bfff17 	ldw	r2,-4(fp)
   80188:	00000706 	br	801a8 <alt_irq_handler+0xac>
      }
      mask <<= 1;
   8018c:	e0bffc17 	ldw	r2,-16(fp)
   80190:	1085883a 	add	r2,r2,r2
   80194:	e0bffc15 	stw	r2,-16(fp)
      i++;
   80198:	e0bffd17 	ldw	r2,-12(fp)
   8019c:	10800044 	addi	r2,r2,1
   801a0:	e0bffd15 	stw	r2,-12(fp)

    } while (1);
   801a4:	003fe106 	br	8012c <__alt_data_end+0xfffaa9fc>

    active = alt_irq_pending ();
   801a8:	e0bffb15 	stw	r2,-20(fp)
    
  } while (active);
   801ac:	e0bffb17 	ldw	r2,-20(fp)
   801b0:	103fdb1e 	bne	r2,zero,80120 <__alt_data_end+0xfffaa9f0>

  /*
   * Notify the operating system that interrupt processing is complete.
   */ 

  ALT_OS_INT_EXIT();
   801b4:	0001883a 	nop
}
   801b8:	0001883a 	nop
   801bc:	e037883a 	mov	sp,fp
   801c0:	dfc00117 	ldw	ra,4(sp)
   801c4:	df000017 	ldw	fp,0(sp)
   801c8:	dec00204 	addi	sp,sp,8
   801cc:	f800283a 	ret

000801d0 <alt_instruction_exception_entry>:
 * that handler if it has been registered. Absent a handler, it will
 * break break or hang as discussed below.
 */
int 
alt_instruction_exception_entry (alt_u32 exception_pc)
{
   801d0:	defffb04 	addi	sp,sp,-20
   801d4:	dfc00415 	stw	ra,16(sp)
   801d8:	df000315 	stw	fp,12(sp)
   801dc:	df000304 	addi	fp,sp,12
   801e0:	e13fff15 	stw	r4,-4(fp)
  cause = ( (cause & NIOS2_EXCEPTION_REG_CAUSE_MASK) >>
              NIOS2_EXCEPTION_REG_CAUSE_OFST );

  NIOS2_READ_BADADDR(badaddr);
#else
  cause = NIOS2_EXCEPTION_CAUSE_NOT_PRESENT;
   801e4:	00bfffc4 	movi	r2,-1
   801e8:	e0bffd15 	stw	r2,-12(fp)
  badaddr = 0;
   801ec:	e03ffe15 	stw	zero,-8(fp)
#endif /* NIOS2_HAS_EXTRA_EXCEPTION_INFO */

  if(alt_instruction_exception_handler) {
   801f0:	d0870417 	ldw	r2,7184(gp)
   801f4:	10000726 	beq	r2,zero,80214 <alt_instruction_exception_entry+0x44>
     * Call handler. Its return value indicates whether the exception-causing
     * instruction should be re-issued. The code that called us,
     * alt_eceptions_entry.S, will look at this value and adjust the ea
     * register as necessary
     */
    return alt_instruction_exception_handler(cause, exception_pc, badaddr);
   801f8:	d0870417 	ldw	r2,7184(gp)
   801fc:	e0fffd17 	ldw	r3,-12(fp)
   80200:	e1bffe17 	ldw	r6,-8(fp)
   80204:	e17fff17 	ldw	r5,-4(fp)
   80208:	1809883a 	mov	r4,r3
   8020c:	103ee83a 	callr	r2
   80210:	00000206 	br	8021c <alt_instruction_exception_entry+0x4c>
   *    (a peripheral which negates its interrupt output before its
   *    interrupt handler has been executed will cause spurious interrupts)
   */
  else {
#ifdef NIOS2_HAS_DEBUG_STUB
    NIOS2_BREAK();
   80214:	003da03a 	break	0
      ;
#endif /* NIOS2_HAS_DEBUG_STUB */
  }

  /* We should not get here. Remove compiler warning. */
  return NIOS2_EXCEPTION_RETURN_REISSUE_INST;
   80218:	0005883a 	mov	r2,zero
}
   8021c:	e037883a 	mov	sp,fp
   80220:	dfc00117 	ldw	ra,4(sp)
   80224:	df000017 	ldw	fp,0(sp)
   80228:	dec00204 	addi	sp,sp,8
   8022c:	f800283a 	ret

Disassembly of section .text:

00080230 <_start>:

    /*
     * Now that the caches are initialized, set up the stack pointer and global pointer.
     * The values provided by the linker are assumed to be correctly aligned.
     */
    movhi sp, %hi(__alt_stack_pointer)
   80230:	06c00374 	movhi	sp,13
    ori sp, sp, %lo(__alt_stack_pointer)
   80234:	ded5cc14 	ori	sp,sp,22320
    movhi gp, %hi(_gp)
   80238:	068002b4 	movhi	gp,10
    ori gp, gp, %lo(_gp)
   8023c:	d697b514 	ori	gp,gp,24276
 */
#ifndef ALT_SIM_OPTIMIZE
    /* Log that the BSS is about to be cleared. */
    ALT_LOG_PUTS(alt_log_msg_bss)

    movhi r2, %hi(__bss_start)
   80240:	008002b4 	movhi	r2,10
    ori r2, r2, %lo(__bss_start)
   80244:	109ea914 	ori	r2,r2,31396

    movhi r3, %hi(__bss_end)
   80248:	00c002f4 	movhi	r3,11
    ori r3, r3, %lo(__bss_end)
   8024c:	18eac814 	ori	r3,r3,43808

    beq r2, r3, 1f
   80250:	10c00326 	beq	r2,r3,80260 <_start+0x30>

0:
    stw zero, (r2)
   80254:	10000015 	stw	zero,0(r2)
    addi r2, r2, 4
   80258:	10800104 	addi	r2,r2,4
    bltu r2, r3, 0b
   8025c:	10fffd36 	bltu	r2,r3,80254 <__alt_data_end+0xfffaab24>
     * section aren't defined until alt_load() has been called).
     */
    mov   et, zero
#endif

    call alt_load
   80260:	00917400 	call	91740 <alt_load>

    /* Log that alt_main is about to be called. */
    ALT_LOG_PUTS(alt_log_msg_alt_main)

    /* Call the C entry point. It should never return. */
    call alt_main
   80264:	00918dc0 	call	918dc <alt_main>

00080268 <alt_after_alt_main>:

    /* Wait in infinite loop in case alt_main does return. */
alt_after_alt_main:
    br alt_after_alt_main
   80268:	003fff06 	br	80268 <__alt_data_end+0xfffaab38>

0008026c <Format_Conv1_W>:
	0.478332608938, 0.343070626259, -0.665887057781, -0.175977796316, 0.409941256046, 0.062993645668, 0.089100502431, 0.278431415558,
	0.328728526831, 0.433134436607, -0.677383780479, -0.284945189953, 0.261582046747, 0.153381928802, 0.544657826424, 0.473581314087,
	0.491747796535, 0.376624584198, -0.783044278622, -0.143371194601, 0.130911856890, 0.325317472219, 0.481452137232, 0.419771283865,
};

void Format_Conv1_W() {
   8026c:	defffc04 	addi	sp,sp,-16
   80270:	df000315 	stw	fp,12(sp)
   80274:	df000304 	addi	fp,sp,12
	int i, j, k;
	for (i = 0; i < CONV_CORE_DIM; i++)
   80278:	e03ffd15 	stw	zero,-12(fp)
   8027c:	00003106 	br	80344 <Format_Conv1_W+0xd8>
		for (j = 0; j < CONV_CORE_DIM; j++)
   80280:	e03ffe15 	stw	zero,-8(fp)
   80284:	00002906 	br	8032c <Format_Conv1_W+0xc0>
			for (k = 0; k < CONV1_OUT_DIM; k++)
   80288:	e03fff15 	stw	zero,-4(fp)
   8028c:	00002106 	br	80314 <Format_Conv1_W+0xa8>
				Conv1_W[i][j][0][k] = Conv1_W_raw[i*CONV_CORE_DIM*CONV1_OUT_DIM + j * CONV1_OUT_DIM + k];
   80290:	e0fffd17 	ldw	r3,-12(fp)
   80294:	1805883a 	mov	r2,r3
   80298:	1085883a 	add	r2,r2,r2
   8029c:	10c7883a 	add	r3,r2,r3
   802a0:	e0bffe17 	ldw	r2,-8(fp)
   802a4:	1885883a 	add	r2,r3,r2
   802a8:	100690fa 	slli	r3,r2,3
   802ac:	e0bfff17 	ldw	r2,-4(fp)
   802b0:	1887883a 	add	r3,r3,r2
   802b4:	00800274 	movhi	r2,9
   802b8:	10911b04 	addi	r2,r2,17516
   802bc:	18c7883a 	add	r3,r3,r3
   802c0:	18c7883a 	add	r3,r3,r3
   802c4:	10c5883a 	add	r2,r2,r3
   802c8:	11400017 	ldw	r5,0(r2)
   802cc:	00c002f4 	movhi	r3,11
   802d0:	18c07e04 	addi	r3,r3,504
   802d4:	e13ffd17 	ldw	r4,-12(fp)
   802d8:	2005883a 	mov	r2,r4
   802dc:	1085883a 	add	r2,r2,r2
   802e0:	1105883a 	add	r2,r2,r4
   802e4:	e13ffe17 	ldw	r4,-8(fp)
   802e8:	1105883a 	add	r2,r2,r4
   802ec:	100890fa 	slli	r4,r2,3
   802f0:	e0bfff17 	ldw	r2,-4(fp)
   802f4:	2085883a 	add	r2,r4,r2
   802f8:	1085883a 	add	r2,r2,r2
   802fc:	1085883a 	add	r2,r2,r2
   80300:	1885883a 	add	r2,r3,r2
   80304:	11400015 	stw	r5,0(r2)

void Format_Conv1_W() {
	int i, j, k;
	for (i = 0; i < CONV_CORE_DIM; i++)
		for (j = 0; j < CONV_CORE_DIM; j++)
			for (k = 0; k < CONV1_OUT_DIM; k++)
   80308:	e0bfff17 	ldw	r2,-4(fp)
   8030c:	10800044 	addi	r2,r2,1
   80310:	e0bfff15 	stw	r2,-4(fp)
   80314:	e0bfff17 	ldw	r2,-4(fp)
   80318:	10800210 	cmplti	r2,r2,8
   8031c:	103fdc1e 	bne	r2,zero,80290 <__alt_data_end+0xfffaab60>
};

void Format_Conv1_W() {
	int i, j, k;
	for (i = 0; i < CONV_CORE_DIM; i++)
		for (j = 0; j < CONV_CORE_DIM; j++)
   80320:	e0bffe17 	ldw	r2,-8(fp)
   80324:	10800044 	addi	r2,r2,1
   80328:	e0bffe15 	stw	r2,-8(fp)
   8032c:	e0bffe17 	ldw	r2,-8(fp)
   80330:	108000d0 	cmplti	r2,r2,3
   80334:	103fd41e 	bne	r2,zero,80288 <__alt_data_end+0xfffaab58>
	0.491747796535, 0.376624584198, -0.783044278622, -0.143371194601, 0.130911856890, 0.325317472219, 0.481452137232, 0.419771283865,
};

void Format_Conv1_W() {
	int i, j, k;
	for (i = 0; i < CONV_CORE_DIM; i++)
   80338:	e0bffd17 	ldw	r2,-12(fp)
   8033c:	10800044 	addi	r2,r2,1
   80340:	e0bffd15 	stw	r2,-12(fp)
   80344:	e0bffd17 	ldw	r2,-12(fp)
   80348:	108000d0 	cmplti	r2,r2,3
   8034c:	103fcc1e 	bne	r2,zero,80280 <__alt_data_end+0xfffaab50>
		for (j = 0; j < CONV_CORE_DIM; j++)
			for (k = 0; k < CONV1_OUT_DIM; k++)
				Conv1_W[i][j][0][k] = Conv1_W_raw[i*CONV_CORE_DIM*CONV1_OUT_DIM + j * CONV1_OUT_DIM + k];
}
   80350:	0001883a 	nop
   80354:	e037883a 	mov	sp,fp
   80358:	df000017 	ldw	fp,0(sp)
   8035c:	dec00104 	addi	sp,sp,4
   80360:	f800283a 	ret

00080364 <Format_Conv2_W>:
	0.205775201321, 0.198324441910, -0.313278973103, -0.108250141144,
	0.233034908772, -0.175800949335, -0.178829267621, 0.143294408917,
	0.295787453651, -0.002093323506, -0.431369543076, -0.094434492290,
};

void Format_Conv2_W() {
   80364:	defffb04 	addi	sp,sp,-20
   80368:	df000415 	stw	fp,16(sp)
   8036c:	df000404 	addi	fp,sp,16
	int i, j, k, l;
	for (i = 0; i < CONV_CORE_DIM; i++)
   80370:	e03ffc15 	stw	zero,-16(fp)
   80374:	00004206 	br	80480 <Format_Conv2_W+0x11c>
		for (j = 0; j < CONV_CORE_DIM; j++)
   80378:	e03ffd15 	stw	zero,-12(fp)
   8037c:	00003a06 	br	80468 <Format_Conv2_W+0x104>
			for (k = 0; k < CONV1_OUT_DIM; k++)
   80380:	e03ffe15 	stw	zero,-8(fp)
   80384:	00003206 	br	80450 <Format_Conv2_W+0xec>
				for (l = 0; l < CONV2_OUT_DIM; l++)
   80388:	e03fff15 	stw	zero,-4(fp)
   8038c:	00002a06 	br	80438 <Format_Conv2_W+0xd4>
					Conv2_W[i][j][k][l] = Conv2_W_raw[i*CONV_CORE_DIM*CONV1_OUT_DIM*CONV2_OUT_DIM + j * CONV1_OUT_DIM*CONV2_OUT_DIM + k * CONV2_OUT_DIM + l];
   80390:	e0fffc17 	ldw	r3,-16(fp)
   80394:	1805883a 	mov	r2,r3
   80398:	1085883a 	add	r2,r2,r2
   8039c:	10c7883a 	add	r3,r2,r3
   803a0:	e0bffd17 	ldw	r2,-12(fp)
   803a4:	1885883a 	add	r2,r3,r2
   803a8:	100690fa 	slli	r3,r2,3
   803ac:	e0bffe17 	ldw	r2,-8(fp)
   803b0:	1885883a 	add	r2,r3,r2
   803b4:	1085883a 	add	r2,r2,r2
   803b8:	1085883a 	add	r2,r2,r2
   803bc:	1007883a 	mov	r3,r2
   803c0:	e0bfff17 	ldw	r2,-4(fp)
   803c4:	1887883a 	add	r3,r3,r2
   803c8:	00800274 	movhi	r2,9
   803cc:	10916304 	addi	r2,r2,17804
   803d0:	18c7883a 	add	r3,r3,r3
   803d4:	18c7883a 	add	r3,r3,r3
   803d8:	10c5883a 	add	r2,r2,r3
   803dc:	11400017 	ldw	r5,0(r2)
   803e0:	00c002f4 	movhi	r3,11
   803e4:	18caf004 	addi	r3,r3,11200
   803e8:	e13ffc17 	ldw	r4,-16(fp)
   803ec:	2005883a 	mov	r2,r4
   803f0:	1085883a 	add	r2,r2,r2
   803f4:	1105883a 	add	r2,r2,r4
   803f8:	e13ffd17 	ldw	r4,-12(fp)
   803fc:	1105883a 	add	r2,r2,r4
   80400:	100890fa 	slli	r4,r2,3
   80404:	e0bffe17 	ldw	r2,-8(fp)
   80408:	2085883a 	add	r2,r4,r2
   8040c:	1085883a 	add	r2,r2,r2
   80410:	1089883a 	add	r4,r2,r2
   80414:	e0bfff17 	ldw	r2,-4(fp)
   80418:	2085883a 	add	r2,r4,r2
   8041c:	1085883a 	add	r2,r2,r2
   80420:	1085883a 	add	r2,r2,r2
   80424:	1885883a 	add	r2,r3,r2
   80428:	11400015 	stw	r5,0(r2)
void Format_Conv2_W() {
	int i, j, k, l;
	for (i = 0; i < CONV_CORE_DIM; i++)
		for (j = 0; j < CONV_CORE_DIM; j++)
			for (k = 0; k < CONV1_OUT_DIM; k++)
				for (l = 0; l < CONV2_OUT_DIM; l++)
   8042c:	e0bfff17 	ldw	r2,-4(fp)
   80430:	10800044 	addi	r2,r2,1
   80434:	e0bfff15 	stw	r2,-4(fp)
   80438:	e0bfff17 	ldw	r2,-4(fp)
   8043c:	10800110 	cmplti	r2,r2,4
   80440:	103fd31e 	bne	r2,zero,80390 <__alt_data_end+0xfffaac60>

void Format_Conv2_W() {
	int i, j, k, l;
	for (i = 0; i < CONV_CORE_DIM; i++)
		for (j = 0; j < CONV_CORE_DIM; j++)
			for (k = 0; k < CONV1_OUT_DIM; k++)
   80444:	e0bffe17 	ldw	r2,-8(fp)
   80448:	10800044 	addi	r2,r2,1
   8044c:	e0bffe15 	stw	r2,-8(fp)
   80450:	e0bffe17 	ldw	r2,-8(fp)
   80454:	10800210 	cmplti	r2,r2,8
   80458:	103fcb1e 	bne	r2,zero,80388 <__alt_data_end+0xfffaac58>
};

void Format_Conv2_W() {
	int i, j, k, l;
	for (i = 0; i < CONV_CORE_DIM; i++)
		for (j = 0; j < CONV_CORE_DIM; j++)
   8045c:	e0bffd17 	ldw	r2,-12(fp)
   80460:	10800044 	addi	r2,r2,1
   80464:	e0bffd15 	stw	r2,-12(fp)
   80468:	e0bffd17 	ldw	r2,-12(fp)
   8046c:	108000d0 	cmplti	r2,r2,3
   80470:	103fc31e 	bne	r2,zero,80380 <__alt_data_end+0xfffaac50>
	0.295787453651, -0.002093323506, -0.431369543076, -0.094434492290,
};

void Format_Conv2_W() {
	int i, j, k, l;
	for (i = 0; i < CONV_CORE_DIM; i++)
   80474:	e0bffc17 	ldw	r2,-16(fp)
   80478:	10800044 	addi	r2,r2,1
   8047c:	e0bffc15 	stw	r2,-16(fp)
   80480:	e0bffc17 	ldw	r2,-16(fp)
   80484:	108000d0 	cmplti	r2,r2,3
   80488:	103fbb1e 	bne	r2,zero,80378 <__alt_data_end+0xfffaac48>
		for (j = 0; j < CONV_CORE_DIM; j++)
			for (k = 0; k < CONV1_OUT_DIM; k++)
				for (l = 0; l < CONV2_OUT_DIM; l++)
					Conv2_W[i][j][k][l] = Conv2_W_raw[i*CONV_CORE_DIM*CONV1_OUT_DIM*CONV2_OUT_DIM + j * CONV1_OUT_DIM*CONV2_OUT_DIM + k * CONV2_OUT_DIM + l];
}
   8048c:	0001883a 	nop
   80490:	e037883a 	mov	sp,fp
   80494:	df000017 	ldw	fp,0(sp)
   80498:	dec00104 	addi	sp,sp,4
   8049c:	f800283a 	ret

000804a0 <Format_Fc1_W>:
	0.127178445458, 0.044816862792, -0.014662570320, -0.064520232379, -0.235376983881, 0.078899003565, -0.015371254645, 0.138617739081, -0.227005228400, -0.003924244549, -0.022568983957, 0.037855725735, -0.120621822774, -0.006319903303, 0.129499390721, 0.180929854512, -0.074028782547, 0.022562483326, 0.063590675592, -0.155227124691, -0.140079766512, -0.041597578675, -0.189778044820, -0.091260723770, 0.098542943597, 0.152349621058, -0.106747485697, -0.132662191987, -0.102049447596, 0.016493020579, -0.111835010350, 0.002606458962,
	0.003723835107, 0.106709659100, 0.016573708504, -0.078420624137, -0.108134247363, -0.129132419825, -0.074413180351, -0.045664742589, -0.200606361032, -0.061181746423, 0.021886354312, -0.031660411507, 0.039107158780, -0.151700735092, 0.197057485580, -0.113156080246, 0.103587836027, -0.017466291785, -0.079787246883, 0.174250438809, 0.026776086539, 0.138518333435, 0.047010373324, -0.020349677652, -0.044780287892, -0.067977577448, -0.043312080204, -0.039684034884, 0.014988371171, -0.051982332021, 0.040609173477, 0.043775539845,
	-0.035542078316, -0.023575557396, 0.042091764510, 0.197612598538, 0.000820584886, -0.121303014457, -0.045213054866, -0.046414125711, 0.026339301839, -0.060650255531, -0.080773353577, 0.015300501138, 0.158764556050, -0.001424677204, 0.162710338831, -0.016992481425, -0.015217824839, 0.016301445663, -0.047071058303, -0.014848603867, 0.050834346563, 0.066649317741, 0.160343617201, -0.034037679434, 0.037955723703, -0.042440604419, 0.045096464455, 0.071097336709, -0.084702648222, -0.073139488697, -0.005728538614, 0.055165097117,
};

void Format_Fc1_W() {
   804a0:	defffd04 	addi	sp,sp,-12
   804a4:	df000215 	stw	fp,8(sp)
   804a8:	df000204 	addi	fp,sp,8
	int i, j;
	for (i = 0; i < (IMAGE_DIM / 4)*(IMAGE_DIM / 4)*CONV2_OUT_DIM; i++)
   804ac:	e03ffe15 	stw	zero,-8(fp)
   804b0:	00001f06 	br	80530 <Format_Fc1_W+0x90>
		for (j = 0; j < FC1_OUT_DIM; j++)
   804b4:	e03fff15 	stw	zero,-4(fp)
   804b8:	00001706 	br	80518 <Format_Fc1_W+0x78>
			Fc1_W[i][j] = Fc1_W_raw[i*FC1_OUT_DIM + j];
   804bc:	e0bffe17 	ldw	r2,-8(fp)
   804c0:	1006917a 	slli	r3,r2,5
   804c4:	e0bfff17 	ldw	r2,-4(fp)
   804c8:	1887883a 	add	r3,r3,r2
   804cc:	00800274 	movhi	r2,9
   804d0:	10928304 	addi	r2,r2,18956
   804d4:	18c7883a 	add	r3,r3,r3
   804d8:	18c7883a 	add	r3,r3,r3
   804dc:	10c5883a 	add	r2,r2,r3
   804e0:	11000017 	ldw	r4,0(r2)
   804e4:	008002f4 	movhi	r2,11
   804e8:	108cf404 	addi	r2,r2,13264
   804ec:	e0fffe17 	ldw	r3,-8(fp)
   804f0:	180a917a 	slli	r5,r3,5
   804f4:	e0ffff17 	ldw	r3,-4(fp)
   804f8:	28c7883a 	add	r3,r5,r3
   804fc:	18c7883a 	add	r3,r3,r3
   80500:	18c7883a 	add	r3,r3,r3
   80504:	10c5883a 	add	r2,r2,r3
   80508:	11000015 	stw	r4,0(r2)
};

void Format_Fc1_W() {
	int i, j;
	for (i = 0; i < (IMAGE_DIM / 4)*(IMAGE_DIM / 4)*CONV2_OUT_DIM; i++)
		for (j = 0; j < FC1_OUT_DIM; j++)
   8050c:	e0bfff17 	ldw	r2,-4(fp)
   80510:	10800044 	addi	r2,r2,1
   80514:	e0bfff15 	stw	r2,-4(fp)
   80518:	e0bfff17 	ldw	r2,-4(fp)
   8051c:	10800810 	cmplti	r2,r2,32
   80520:	103fe61e 	bne	r2,zero,804bc <__alt_data_end+0xfffaad8c>
	-0.035542078316, -0.023575557396, 0.042091764510, 0.197612598538, 0.000820584886, -0.121303014457, -0.045213054866, -0.046414125711, 0.026339301839, -0.060650255531, -0.080773353577, 0.015300501138, 0.158764556050, -0.001424677204, 0.162710338831, -0.016992481425, -0.015217824839, 0.016301445663, -0.047071058303, -0.014848603867, 0.050834346563, 0.066649317741, 0.160343617201, -0.034037679434, 0.037955723703, -0.042440604419, 0.045096464455, 0.071097336709, -0.084702648222, -0.073139488697, -0.005728538614, 0.055165097117,
};

void Format_Fc1_W() {
	int i, j;
	for (i = 0; i < (IMAGE_DIM / 4)*(IMAGE_DIM / 4)*CONV2_OUT_DIM; i++)
   80524:	e0bffe17 	ldw	r2,-8(fp)
   80528:	10800044 	addi	r2,r2,1
   8052c:	e0bffe15 	stw	r2,-8(fp)
   80530:	e0bffe17 	ldw	r2,-8(fp)
   80534:	10803110 	cmplti	r2,r2,196
   80538:	103fde1e 	bne	r2,zero,804b4 <__alt_data_end+0xfffaad84>
		for (j = 0; j < FC1_OUT_DIM; j++)
			Fc1_W[i][j] = Fc1_W_raw[i*FC1_OUT_DIM + j];
}
   8053c:	0001883a 	nop
   80540:	e037883a 	mov	sp,fp
   80544:	df000017 	ldw	fp,0(sp)
   80548:	dec00104 	addi	sp,sp,4
   8054c:	f800283a 	ret

00080550 <Format_Fc2_W>:
	0.171521484852, -0.501652836800, -0.042966634035, -0.198097750545, 0.174215391278, -0.043280988932, 0.188503652811, -0.131451472640, 0.115259565413, 0.150849923491,
	-0.125158265233, -0.145960763097, 0.034650668502, -0.235801413655, 0.205909237266, 0.094551570714, 0.187727853656, -0.226710900664, 0.164939746261, 0.164889454842,
	-0.162963539362, 0.157234698534, 0.003025386482, -0.356876045465, 0.141815289855, 0.067782752216, 0.157360702753, -0.312196701765, 0.119925968349, -0.183696389198,
};

void Format_Fc2_W() {
   80550:	defffa04 	addi	sp,sp,-24
   80554:	dfc00515 	stw	ra,20(sp)
   80558:	df000415 	stw	fp,16(sp)
   8055c:	dc400315 	stw	r17,12(sp)
   80560:	dc000215 	stw	r16,8(sp)
   80564:	df000404 	addi	fp,sp,16
	int i, j;
	for (i = 0; i < FC1_OUT_DIM; i++)
   80568:	e03ffc15 	stw	zero,-16(fp)
   8056c:	00002406 	br	80600 <Format_Fc2_W+0xb0>
		for (j = 0; j < FC2_OUT_DIM; j++)
   80570:	e03ffd15 	stw	zero,-12(fp)
   80574:	00001c06 	br	805e8 <Format_Fc2_W+0x98>
			Fc2_W[i][j] = Fc2_W_raw[i*FC2_OUT_DIM + j];
   80578:	01400284 	movi	r5,10
   8057c:	e13ffc17 	ldw	r4,-16(fp)
   80580:	0082a480 	call	82a48 <__mulsi3>
   80584:	1007883a 	mov	r3,r2
   80588:	e0bffd17 	ldw	r2,-12(fp)
   8058c:	1887883a 	add	r3,r3,r2
   80590:	008002b4 	movhi	r2,10
   80594:	10ab0304 	addi	r2,r2,-21492
   80598:	18c7883a 	add	r3,r3,r3
   8059c:	18c7883a 	add	r3,r3,r3
   805a0:	10c5883a 	add	r2,r2,r3
   805a4:	14400017 	ldw	r17,0(r2)
   805a8:	04000334 	movhi	r16,12
   805ac:	84257404 	addi	r16,r16,-27184
   805b0:	e0bffc17 	ldw	r2,-16(fp)
   805b4:	01400284 	movi	r5,10
   805b8:	1009883a 	mov	r4,r2
   805bc:	0082a480 	call	82a48 <__mulsi3>
   805c0:	1007883a 	mov	r3,r2
   805c4:	e0bffd17 	ldw	r2,-12(fp)
   805c8:	1885883a 	add	r2,r3,r2
   805cc:	1085883a 	add	r2,r2,r2
   805d0:	1085883a 	add	r2,r2,r2
   805d4:	8085883a 	add	r2,r16,r2
   805d8:	14400015 	stw	r17,0(r2)
};

void Format_Fc2_W() {
	int i, j;
	for (i = 0; i < FC1_OUT_DIM; i++)
		for (j = 0; j < FC2_OUT_DIM; j++)
   805dc:	e0bffd17 	ldw	r2,-12(fp)
   805e0:	10800044 	addi	r2,r2,1
   805e4:	e0bffd15 	stw	r2,-12(fp)
   805e8:	e0bffd17 	ldw	r2,-12(fp)
   805ec:	10800290 	cmplti	r2,r2,10
   805f0:	103fe11e 	bne	r2,zero,80578 <__alt_data_end+0xfffaae48>
	-0.162963539362, 0.157234698534, 0.003025386482, -0.356876045465, 0.141815289855, 0.067782752216, 0.157360702753, -0.312196701765, 0.119925968349, -0.183696389198,
};

void Format_Fc2_W() {
	int i, j;
	for (i = 0; i < FC1_OUT_DIM; i++)
   805f4:	e0bffc17 	ldw	r2,-16(fp)
   805f8:	10800044 	addi	r2,r2,1
   805fc:	e0bffc15 	stw	r2,-16(fp)
   80600:	e0bffc17 	ldw	r2,-16(fp)
   80604:	10800810 	cmplti	r2,r2,32
   80608:	103fd91e 	bne	r2,zero,80570 <__alt_data_end+0xfffaae40>
		for (j = 0; j < FC2_OUT_DIM; j++)
			Fc2_W[i][j] = Fc2_W_raw[i*FC2_OUT_DIM + j];
}
   8060c:	0001883a 	nop
   80610:	e6fffe04 	addi	sp,fp,-8
   80614:	dfc00317 	ldw	ra,12(sp)
   80618:	df000217 	ldw	fp,8(sp)
   8061c:	dc400117 	ldw	r17,4(sp)
   80620:	dc000017 	ldw	r16,0(sp)
   80624:	dec00404 	addi	sp,sp,16
   80628:	f800283a 	ret

0008062c <Format_InputImage>:
0.00000000, 0.00000000, 0.00000000, 0.00000000, 0.00000000, 0.00000000, 0.00000000, 0.00000000, 0.00000000, 0.00000000, 0.00000000, 0.00000000, 0.00000000, 0.00000000, 0.00000000, 0.00000000, 0.00000000, 0.00000000, 0.00000000, 0.00000000, 0.00000000, 0.00000000, 0.00000000, 0.00000000, 0.00000000, 0.00000000, 0.00000000, 0.00000000,
*/
		0, 0, 0, 0, 0, 0, 0, 0, 0, 0, 0, 0, 0, 0, 0, 0, 0, 0, 0, 0, 0, 0, 0, 0, 0, 0, 0, 0, 0, 0, 0, 0, 0, 0, 0, 0, 0, 0, 0, 0, 0, 0, 0, 0, 0, 0, 0, 0, 0, 0, 0, 0, 0, 0, 0, 0, 0, 0, 0, 0, 0, 0, 0, 0, 0, 0, 0, 0, 0, 0, 0, 0, 0, 0, 0, 0, 0, 0, 0, 0, 0, 0, 0, 0, 0, 0, 0, 0, 0, 0, 0, 0, 0, 0, 0, 0, 0, 0.00784314, 0.0627451, 0.0941176, 0.0627451, 0.0117647, 0, 0, 0, 0, 0, 0, 0, 0, 0, 0, 0, 0, 0, 0, 0, 0, 0, 0, 0, 0, 0, 0.113725, 0.584314, 0.803922, 0.952941, 0.968627, 0.945098, 0.839216, 0.505882, 0.0745098, 0, 0, 0, 0, 0, 0, 0, 0, 0, 0, 0, 0, 0, 0, 0, 0, 0, 0.027451, 0.513725, 0.937255, 0.996078, 0.992157, 0.988235, 0.980392, 0.992157, 0.996078, 0.996078, 0.85098, 0.207843, 0, 0, 0, 0, 0, 0, 0, 0, 0, 0, 0, 0, 0, 0, 0.0117647, 0.541176, 0.784314, 0.992157, 0.992157, 0.882353, 0.435294, 0.176471, 0.101961, 0.188235, 0.482353, 0.92549, 0.996078, 0.94902, 0.215686, 0, 0, 0, 0, 0, 0, 0, 0, 0, 0, 0, 0, 0, 0.0784314, 0.972549, 0.996078, 0.964706, 0.466667, 0.0431373, 0, 0, 0, 0, 0, 0.152941, 0.811765, 0.996078, 0.635294, 0, 0, 0, 0, 0, 0, 0, 0, 0, 0, 0, 0, 0, 0.00392157, 0.623529, 0.847059, 0.364706, 0, 0, 0, 0, 0, 0, 0, 0, 0.321569, 0.992157, 0.909804, 0.0392157, 0, 0, 0, 0, 0, 0, 0, 0, 0, 0, 0, 0, 0, 0, 0, 0, 0, 0, 0, 0, 0, 0, 0, 0, 0.0745098, 0.972549, 0.984314, 0.12549, 0, 0, 0, 0, 0, 0, 0, 0, 0, 0, 0, 0, 0, 0, 0, 0, 0, 0, 0, 0, 0, 0, 0, 0, 0.101961, 0.976471, 0.980392, 0.113725, 0, 0, 0, 0, 0, 0, 0, 0, 0, 0, 0, 0, 0, 0, 0, 0, 0, 0, 0, 0, 0, 0, 0, 0, 0.498039, 0.992157, 0.882353, 0.0352941, 0, 0, 0, 0, 0, 0, 0, 0, 0, 0, 0, 0, 0, 0, 0, 0, 0, 0, 0, 0, 0, 0, 0, 0.172549, 0.937255, 0.992157, 0.443137, 0, 0, 0, 0, 0, 0, 0, 0, 0, 0, 0, 0, 0, 0, 0, 0, 0, 0, 0, 0, 0, 0, 0, 0, 0.658824, 0.996078, 0.788235, 0.027451, 0, 0, 0, 0, 0, 0, 0, 0, 0, 0, 0, 0, 0, 0, 0, 0, 0, 0, 0, 0, 0, 0, 0, 0.129412, 0.952941, 0.992157, 0.294118, 0, 0, 0, 0, 0, 0, 0, 0, 0, 0, 0, 0, 0, 0, 0, 0, 0, 0, 0, 0, 0, 0, 0, 0.0705882, 0.792157, 0.996078, 0.905882, 0.0509804, 0, 0, 0, 0, 0, 0, 0, 0, 0, 0, 0, 0, 0, 0, 0, 0, 0, 0, 0, 0, 0, 0, 0.0235294, 0.701961, 0.996078, 0.94902, 0.266667, 0, 0, 0, 0, 0, 0, 0, 0, 0, 0, 0, 0, 0, 0, 0, 0, 0, 0, 0, 0, 0.0392157, 0.207843, 0.513725, 0.733333, 0.992157, 0.992157, 0.670588, 0.321569, 0.160784, 0.0156863, 0, 0, 0, 0, 0, 0, 0, 0, 0, 0, 0, 0, 0, 0, 0, 0.00392157, 0.211765, 0.72549, 0.92549, 0.988235, 0.996078, 0.996078, 0.996078, 0.996078, 0.996078, 0.992157, 0.972549, 0.878431, 0.788235, 0.509804, 0.305882, 0.0627451, 0, 0, 0, 0, 0, 0, 0, 0, 0, 0, 0.054902, 0.580392, 0.976471, 0.996078, 0.992157, 0.992157, 0.996078, 0.992157, 0.756863, 0.572549, 0.678431, 0.85098, 0.968627, 0.992157, 0.996078, 0.996078, 0.992157, 0.792157, 0.0117647, 0, 0, 0, 0, 0, 0, 0, 0, 0.0666667, 0.745098, 0.992157, 0.992157, 0.823529, 0.862745, 0.992157, 0.992157, 0.705882, 0.0313725, 0, 0, 0.00784314, 0.121569, 0.270588, 0.517647, 0.705882, 0.94902, 0.72549, 0.00784314, 0, 0, 0, 0, 0, 0, 0, 0, 0.67451, 0.996078, 0.952941, 0.658824, 0.870588, 0.992157, 0.968627, 0.529412, 0.0352941, 0, 0, 0, 0, 0, 0, 0, 0, 0.0392157, 0.0156863, 0, 0, 0, 0, 0, 0, 0, 0, 0.141176, 0.976471, 0.992157, 0.882353, 0.984314, 0.996078, 0.87451, 0.243137, 0, 0, 0, 0, 0, 0, 0, 0, 0, 0, 0, 0, 0, 0, 0, 0, 0, 0, 0, 0, 0.109804, 0.92549, 0.996078, 0.996078, 0.984314, 0.580392, 0.0705882, 0, 0, 0, 0, 0, 0, 0, 0, 0, 0, 0, 0, 0, 0, 0, 0, 0, 0, 0, 0, 0, 0, 0.227451, 0.623529, 0.694118, 0.34902, 0.00392157, 0, 0, 0, 0, 0, 0, 0, 0, 0, 0, 0, 0, 0, 0, 0, 0, 0, 0, 0, 0, 0, 0, 0, 0, 0, 0, 0, 0, 0, 0, 0, 0, 0, 0, 0, 0, 0, 0, 0, 0, 0, 0, 0, 0, 0, 0, 0, 0, 0, 0, 0, 0, 0, 0, 0, 0, 0, 0, 0, 0, 0, 0, 0, 0, 0, 0, 0, 0, 0, 0, 0, 0, 0, 0, 0, 0, 0, 0, 0, 0, 0, 0, 0, 0, 0, 0, 0, 0, 0, 0, 0, 0, 0, 0, 0, 0, 0, 0, 0, 0,
};

void Format_InputImage() {
   8062c:	defffa04 	addi	sp,sp,-24
   80630:	dfc00515 	stw	ra,20(sp)
   80634:	df000415 	stw	fp,16(sp)
   80638:	dc400315 	stw	r17,12(sp)
   8063c:	dc000215 	stw	r16,8(sp)
   80640:	df000404 	addi	fp,sp,16
	int i, j;
	for (i = 0; i < IMAGE_DIM; i++)
   80644:	e03ffc15 	stw	zero,-16(fp)
   80648:	00002406 	br	806dc <Format_InputImage+0xb0>
		for (j = 0; j < IMAGE_DIM; j++)
   8064c:	e03ffd15 	stw	zero,-12(fp)
   80650:	00001c06 	br	806c4 <Format_InputImage+0x98>
			Input_Image[i][j] = Input_Image_raw[i*IMAGE_DIM + j];
   80654:	01400704 	movi	r5,28
   80658:	e13ffc17 	ldw	r4,-16(fp)
   8065c:	0082a480 	call	82a48 <__mulsi3>
   80660:	1007883a 	mov	r3,r2
   80664:	e0bffd17 	ldw	r2,-12(fp)
   80668:	1887883a 	add	r3,r3,r2
   8066c:	008002b4 	movhi	r2,10
   80670:	10ac4304 	addi	r2,r2,-20212
   80674:	18c7883a 	add	r3,r3,r3
   80678:	18c7883a 	add	r3,r3,r3
   8067c:	10c5883a 	add	r2,r2,r3
   80680:	14400017 	ldw	r17,0(r2)
   80684:	040002f4 	movhi	r16,11
   80688:	8407e004 	addi	r16,r16,8064
   8068c:	e0bffc17 	ldw	r2,-16(fp)
   80690:	01400704 	movi	r5,28
   80694:	1009883a 	mov	r4,r2
   80698:	0082a480 	call	82a48 <__mulsi3>
   8069c:	1007883a 	mov	r3,r2
   806a0:	e0bffd17 	ldw	r2,-12(fp)
   806a4:	1885883a 	add	r2,r3,r2
   806a8:	1085883a 	add	r2,r2,r2
   806ac:	1085883a 	add	r2,r2,r2
   806b0:	8085883a 	add	r2,r16,r2
   806b4:	14400015 	stw	r17,0(r2)
};

void Format_InputImage() {
	int i, j;
	for (i = 0; i < IMAGE_DIM; i++)
		for (j = 0; j < IMAGE_DIM; j++)
   806b8:	e0bffd17 	ldw	r2,-12(fp)
   806bc:	10800044 	addi	r2,r2,1
   806c0:	e0bffd15 	stw	r2,-12(fp)
   806c4:	e0bffd17 	ldw	r2,-12(fp)
   806c8:	10800710 	cmplti	r2,r2,28
   806cc:	103fe11e 	bne	r2,zero,80654 <__alt_data_end+0xfffaaf24>
		0, 0, 0, 0, 0, 0, 0, 0, 0, 0, 0, 0, 0, 0, 0, 0, 0, 0, 0, 0, 0, 0, 0, 0, 0, 0, 0, 0, 0, 0, 0, 0, 0, 0, 0, 0, 0, 0, 0, 0, 0, 0, 0, 0, 0, 0, 0, 0, 0, 0, 0, 0, 0, 0, 0, 0, 0, 0, 0, 0, 0, 0, 0, 0, 0, 0, 0, 0, 0, 0, 0, 0, 0, 0, 0, 0, 0, 0, 0, 0, 0, 0, 0, 0, 0, 0, 0, 0, 0, 0, 0, 0, 0, 0, 0, 0, 0, 0.00784314, 0.0627451, 0.0941176, 0.0627451, 0.0117647, 0, 0, 0, 0, 0, 0, 0, 0, 0, 0, 0, 0, 0, 0, 0, 0, 0, 0, 0, 0, 0, 0.113725, 0.584314, 0.803922, 0.952941, 0.968627, 0.945098, 0.839216, 0.505882, 0.0745098, 0, 0, 0, 0, 0, 0, 0, 0, 0, 0, 0, 0, 0, 0, 0, 0, 0, 0.027451, 0.513725, 0.937255, 0.996078, 0.992157, 0.988235, 0.980392, 0.992157, 0.996078, 0.996078, 0.85098, 0.207843, 0, 0, 0, 0, 0, 0, 0, 0, 0, 0, 0, 0, 0, 0, 0.0117647, 0.541176, 0.784314, 0.992157, 0.992157, 0.882353, 0.435294, 0.176471, 0.101961, 0.188235, 0.482353, 0.92549, 0.996078, 0.94902, 0.215686, 0, 0, 0, 0, 0, 0, 0, 0, 0, 0, 0, 0, 0, 0.0784314, 0.972549, 0.996078, 0.964706, 0.466667, 0.0431373, 0, 0, 0, 0, 0, 0.152941, 0.811765, 0.996078, 0.635294, 0, 0, 0, 0, 0, 0, 0, 0, 0, 0, 0, 0, 0, 0.00392157, 0.623529, 0.847059, 0.364706, 0, 0, 0, 0, 0, 0, 0, 0, 0.321569, 0.992157, 0.909804, 0.0392157, 0, 0, 0, 0, 0, 0, 0, 0, 0, 0, 0, 0, 0, 0, 0, 0, 0, 0, 0, 0, 0, 0, 0, 0, 0.0745098, 0.972549, 0.984314, 0.12549, 0, 0, 0, 0, 0, 0, 0, 0, 0, 0, 0, 0, 0, 0, 0, 0, 0, 0, 0, 0, 0, 0, 0, 0, 0.101961, 0.976471, 0.980392, 0.113725, 0, 0, 0, 0, 0, 0, 0, 0, 0, 0, 0, 0, 0, 0, 0, 0, 0, 0, 0, 0, 0, 0, 0, 0, 0.498039, 0.992157, 0.882353, 0.0352941, 0, 0, 0, 0, 0, 0, 0, 0, 0, 0, 0, 0, 0, 0, 0, 0, 0, 0, 0, 0, 0, 0, 0, 0.172549, 0.937255, 0.992157, 0.443137, 0, 0, 0, 0, 0, 0, 0, 0, 0, 0, 0, 0, 0, 0, 0, 0, 0, 0, 0, 0, 0, 0, 0, 0, 0.658824, 0.996078, 0.788235, 0.027451, 0, 0, 0, 0, 0, 0, 0, 0, 0, 0, 0, 0, 0, 0, 0, 0, 0, 0, 0, 0, 0, 0, 0, 0.129412, 0.952941, 0.992157, 0.294118, 0, 0, 0, 0, 0, 0, 0, 0, 0, 0, 0, 0, 0, 0, 0, 0, 0, 0, 0, 0, 0, 0, 0, 0.0705882, 0.792157, 0.996078, 0.905882, 0.0509804, 0, 0, 0, 0, 0, 0, 0, 0, 0, 0, 0, 0, 0, 0, 0, 0, 0, 0, 0, 0, 0, 0, 0.0235294, 0.701961, 0.996078, 0.94902, 0.266667, 0, 0, 0, 0, 0, 0, 0, 0, 0, 0, 0, 0, 0, 0, 0, 0, 0, 0, 0, 0, 0.0392157, 0.207843, 0.513725, 0.733333, 0.992157, 0.992157, 0.670588, 0.321569, 0.160784, 0.0156863, 0, 0, 0, 0, 0, 0, 0, 0, 0, 0, 0, 0, 0, 0, 0, 0.00392157, 0.211765, 0.72549, 0.92549, 0.988235, 0.996078, 0.996078, 0.996078, 0.996078, 0.996078, 0.992157, 0.972549, 0.878431, 0.788235, 0.509804, 0.305882, 0.0627451, 0, 0, 0, 0, 0, 0, 0, 0, 0, 0, 0.054902, 0.580392, 0.976471, 0.996078, 0.992157, 0.992157, 0.996078, 0.992157, 0.756863, 0.572549, 0.678431, 0.85098, 0.968627, 0.992157, 0.996078, 0.996078, 0.992157, 0.792157, 0.0117647, 0, 0, 0, 0, 0, 0, 0, 0, 0.0666667, 0.745098, 0.992157, 0.992157, 0.823529, 0.862745, 0.992157, 0.992157, 0.705882, 0.0313725, 0, 0, 0.00784314, 0.121569, 0.270588, 0.517647, 0.705882, 0.94902, 0.72549, 0.00784314, 0, 0, 0, 0, 0, 0, 0, 0, 0.67451, 0.996078, 0.952941, 0.658824, 0.870588, 0.992157, 0.968627, 0.529412, 0.0352941, 0, 0, 0, 0, 0, 0, 0, 0, 0.0392157, 0.0156863, 0, 0, 0, 0, 0, 0, 0, 0, 0.141176, 0.976471, 0.992157, 0.882353, 0.984314, 0.996078, 0.87451, 0.243137, 0, 0, 0, 0, 0, 0, 0, 0, 0, 0, 0, 0, 0, 0, 0, 0, 0, 0, 0, 0, 0.109804, 0.92549, 0.996078, 0.996078, 0.984314, 0.580392, 0.0705882, 0, 0, 0, 0, 0, 0, 0, 0, 0, 0, 0, 0, 0, 0, 0, 0, 0, 0, 0, 0, 0, 0, 0.227451, 0.623529, 0.694118, 0.34902, 0.00392157, 0, 0, 0, 0, 0, 0, 0, 0, 0, 0, 0, 0, 0, 0, 0, 0, 0, 0, 0, 0, 0, 0, 0, 0, 0, 0, 0, 0, 0, 0, 0, 0, 0, 0, 0, 0, 0, 0, 0, 0, 0, 0, 0, 0, 0, 0, 0, 0, 0, 0, 0, 0, 0, 0, 0, 0, 0, 0, 0, 0, 0, 0, 0, 0, 0, 0, 0, 0, 0, 0, 0, 0, 0, 0, 0, 0, 0, 0, 0, 0, 0, 0, 0, 0, 0, 0, 0, 0, 0, 0, 0, 0, 0, 0, 0, 0, 0, 0, 0, 0,
};

void Format_InputImage() {
	int i, j;
	for (i = 0; i < IMAGE_DIM; i++)
   806d0:	e0bffc17 	ldw	r2,-16(fp)
   806d4:	10800044 	addi	r2,r2,1
   806d8:	e0bffc15 	stw	r2,-16(fp)
   806dc:	e0bffc17 	ldw	r2,-16(fp)
   806e0:	10800710 	cmplti	r2,r2,28
   806e4:	103fd91e 	bne	r2,zero,8064c <__alt_data_end+0xfffaaf1c>
		for (j = 0; j < IMAGE_DIM; j++)
			Input_Image[i][j] = Input_Image_raw[i*IMAGE_DIM + j];
}
   806e8:	0001883a 	nop
   806ec:	e6fffe04 	addi	sp,fp,-8
   806f0:	dfc00317 	ldw	ra,12(sp)
   806f4:	df000217 	ldw	fp,8(sp)
   806f8:	dc400117 	ldw	r17,4(sp)
   806fc:	dc000017 	ldw	r16,0(sp)
   80700:	dec00404 	addi	sp,sp,16
   80704:	f800283a 	ret

00080708 <CNN_MNIST_recognition>:
// FC Layer 2
void Fc2();
// Softmax and get the result
void Get_Answer();

int CNN_MNIST_recognition() {
   80708:	defffe04 	addi	sp,sp,-8
   8070c:	dfc00115 	stw	ra,4(sp)
   80710:	df000015 	stw	fp,0(sp)
   80714:	d839883a 	mov	fp,sp
	//LCD_Clear();
	Load_All();
   80718:	00807540 	call	80754 <Load_All>
	//*(pSEG) = 0xff00ffff + (9 << 20) + (6 << 16);  // 96%
	Conv1();
   8071c:	008078c0 	call	8078c <Conv1>
	MaxPool1();
   80720:	0080aa40 	call	80aa4 <MaxPool1>
	//*(pSEG) = 0xff00ffff + (9 << 20) + (7 << 16);  // 97%
	Conv2();
   80724:	0080cdc0 	call	80cdc <Conv2>
	MaxPool2();
   80728:	0080f900 	call	80f90 <MaxPool2>
	Flatten();
   8072c:	00811dc0 	call	811dc <Flatten>
	//*(pSEG) = 0xff00ffff + (9 << 20) + (8 << 16);  // 98%
	Fc1();
   80730:	00812fc0 	call	812fc <Fc1>
	//*(pSEG) = 0xff00ffff + (9 << 20) + (9 << 16);  // 99%
	Fc2();
   80734:	00814440 	call	81444 <Fc2>
	Get_Answer();
   80738:	00815880 	call	81588 <Get_Answer>
	return ans;
   8073c:	d086f417 	ldw	r2,7120(gp)
}
   80740:	e037883a 	mov	sp,fp
   80744:	dfc00117 	ldw	ra,4(sp)
   80748:	df000017 	ldw	fp,0(sp)
   8074c:	dec00204 	addi	sp,sp,8
   80750:	f800283a 	ret

00080754 <Load_All>:

void Load_All() {
   80754:	defffe04 	addi	sp,sp,-8
   80758:	dfc00115 	stw	ra,4(sp)
   8075c:	df000015 	stw	fp,0(sp)
   80760:	d839883a 	mov	fp,sp
	Format_Conv1_W();
   80764:	008026c0 	call	8026c <Format_Conv1_W>
	Format_Conv2_W();
   80768:	00803640 	call	80364 <Format_Conv2_W>
	Format_Fc1_W();
   8076c:	00804a00 	call	804a0 <Format_Fc1_W>
	Format_Fc2_W();
   80770:	00805500 	call	80550 <Format_Fc2_W>
	//Format_InputImage();
}
   80774:	0001883a 	nop
   80778:	e037883a 	mov	sp,fp
   8077c:	dfc00117 	ldw	ra,4(sp)
   80780:	df000017 	ldw	fp,0(sp)
   80784:	dec00204 	addi	sp,sp,8
   80788:	f800283a 	ret

0008078c <Conv1>:

void Conv1() {
   8078c:	defff504 	addi	sp,sp,-44
   80790:	dfc00a15 	stw	ra,40(sp)
   80794:	df000915 	stw	fp,36(sp)
   80798:	dc800815 	stw	r18,32(sp)
   8079c:	dc400715 	stw	r17,28(sp)
   807a0:	dc000615 	stw	r16,24(sp)
   807a4:	df000904 	addi	fp,sp,36
	int i, j, k;
	int i2, j2;
	float tmp_ans;
	for (i = 0; i < IMAGE_DIM; i++)
   807a8:	e03ff715 	stw	zero,-36(fp)
   807ac:	00008706 	br	809cc <Conv1+0x240>
		for (j = 0; j < IMAGE_DIM; j++)
   807b0:	e03ff815 	stw	zero,-32(fp)
   807b4:	00007f06 	br	809b4 <Conv1+0x228>
			for (k = 0; k < CONV1_OUT_DIM; k++) {
   807b8:	e03ff915 	stw	zero,-28(fp)
   807bc:	00007706 	br	8099c <Conv1+0x210>
				tmp_ans = 0.0;
   807c0:	e03ffc15 	stw	zero,-16(fp)
				for (i2 = -CONV_RANGE; i2 <= CONV_RANGE; i2++)
   807c4:	00bfffc4 	movi	r2,-1
   807c8:	e0bffa15 	stw	r2,-24(fp)
   807cc:	00004806 	br	808f0 <Conv1+0x164>
					for (j2 = -CONV_RANGE; j2 <= CONV_RANGE; j2++)
   807d0:	00bfffc4 	movi	r2,-1
   807d4:	e0bffb15 	stw	r2,-20(fp)
   807d8:	00003f06 	br	808d8 <Conv1+0x14c>
						if (i + i2 >= 0 && j + j2 >= 0 && i + i2 < IMAGE_DIM && j + j2 < IMAGE_DIM)
   807dc:	e0fff717 	ldw	r3,-36(fp)
   807e0:	e0bffa17 	ldw	r2,-24(fp)
   807e4:	1885883a 	add	r2,r3,r2
   807e8:	10003816 	blt	r2,zero,808cc <Conv1+0x140>
   807ec:	e0fff817 	ldw	r3,-32(fp)
   807f0:	e0bffb17 	ldw	r2,-20(fp)
   807f4:	1885883a 	add	r2,r3,r2
   807f8:	10003416 	blt	r2,zero,808cc <Conv1+0x140>
   807fc:	e0fff717 	ldw	r3,-36(fp)
   80800:	e0bffa17 	ldw	r2,-24(fp)
   80804:	1885883a 	add	r2,r3,r2
   80808:	10800708 	cmpgei	r2,r2,28
   8080c:	10002f1e 	bne	r2,zero,808cc <Conv1+0x140>
   80810:	e0fff817 	ldw	r3,-32(fp)
   80814:	e0bffb17 	ldw	r2,-20(fp)
   80818:	1885883a 	add	r2,r3,r2
   8081c:	10800708 	cmpgei	r2,r2,28
   80820:	10002a1e 	bne	r2,zero,808cc <Conv1+0x140>
							tmp_ans += Conv1_W[CONV_MID + i2][CONV_MID + j2][0][k] * Input_Image[i + i2][j + j2];
   80824:	e0bffa17 	ldw	r2,-24(fp)
   80828:	11000044 	addi	r4,r2,1
   8082c:	e0bffb17 	ldw	r2,-20(fp)
   80830:	11400044 	addi	r5,r2,1
   80834:	00c002f4 	movhi	r3,11
   80838:	18c07e04 	addi	r3,r3,504
   8083c:	2005883a 	mov	r2,r4
   80840:	1085883a 	add	r2,r2,r2
   80844:	1105883a 	add	r2,r2,r4
   80848:	1145883a 	add	r2,r2,r5
   8084c:	100890fa 	slli	r4,r2,3
   80850:	e0bff917 	ldw	r2,-28(fp)
   80854:	2085883a 	add	r2,r4,r2
   80858:	1085883a 	add	r2,r2,r2
   8085c:	1085883a 	add	r2,r2,r2
   80860:	1885883a 	add	r2,r3,r2
   80864:	14800017 	ldw	r18,0(r2)
   80868:	e0fff717 	ldw	r3,-36(fp)
   8086c:	e0bffa17 	ldw	r2,-24(fp)
   80870:	1889883a 	add	r4,r3,r2
   80874:	e0fff817 	ldw	r3,-32(fp)
   80878:	e0bffb17 	ldw	r2,-20(fp)
   8087c:	18a3883a 	add	r17,r3,r2
   80880:	040002f4 	movhi	r16,11
   80884:	8407e004 	addi	r16,r16,8064
   80888:	01400704 	movi	r5,28
   8088c:	0082a480 	call	82a48 <__mulsi3>
   80890:	1445883a 	add	r2,r2,r17
   80894:	1085883a 	add	r2,r2,r2
   80898:	1085883a 	add	r2,r2,r2
   8089c:	8085883a 	add	r2,r16,r2
   808a0:	10c00017 	ldw	r3,0(r2)
   808a4:	180b883a 	mov	r5,r3
   808a8:	9009883a 	mov	r4,r18
   808ac:	00834340 	call	83434 <__mulsf3>
   808b0:	1007883a 	mov	r3,r2
   808b4:	1805883a 	mov	r2,r3
   808b8:	100b883a 	mov	r5,r2
   808bc:	e13ffc17 	ldw	r4,-16(fp)
   808c0:	0082a700 	call	82a70 <__addsf3>
   808c4:	1007883a 	mov	r3,r2
   808c8:	e0fffc15 	stw	r3,-16(fp)
	for (i = 0; i < IMAGE_DIM; i++)
		for (j = 0; j < IMAGE_DIM; j++)
			for (k = 0; k < CONV1_OUT_DIM; k++) {
				tmp_ans = 0.0;
				for (i2 = -CONV_RANGE; i2 <= CONV_RANGE; i2++)
					for (j2 = -CONV_RANGE; j2 <= CONV_RANGE; j2++)
   808cc:	e0bffb17 	ldw	r2,-20(fp)
   808d0:	10800044 	addi	r2,r2,1
   808d4:	e0bffb15 	stw	r2,-20(fp)
   808d8:	e0bffb17 	ldw	r2,-20(fp)
   808dc:	10800090 	cmplti	r2,r2,2
   808e0:	103fbe1e 	bne	r2,zero,807dc <__alt_data_end+0xfffab0ac>
	float tmp_ans;
	for (i = 0; i < IMAGE_DIM; i++)
		for (j = 0; j < IMAGE_DIM; j++)
			for (k = 0; k < CONV1_OUT_DIM; k++) {
				tmp_ans = 0.0;
				for (i2 = -CONV_RANGE; i2 <= CONV_RANGE; i2++)
   808e4:	e0bffa17 	ldw	r2,-24(fp)
   808e8:	10800044 	addi	r2,r2,1
   808ec:	e0bffa15 	stw	r2,-24(fp)
   808f0:	e0bffa17 	ldw	r2,-24(fp)
   808f4:	10800090 	cmplti	r2,r2,2
   808f8:	103fb51e 	bne	r2,zero,807d0 <__alt_data_end+0xfffab0a0>
					for (j2 = -CONV_RANGE; j2 <= CONV_RANGE; j2++)
						if (i + i2 >= 0 && j + j2 >= 0 && i + i2 < IMAGE_DIM && j + j2 < IMAGE_DIM)
							tmp_ans += Conv1_W[CONV_MID + i2][CONV_MID + j2][0][k] * Input_Image[i + i2][j + j2];
				tmp_ans += Conv1_B[k];
   808fc:	00800274 	movhi	r2,9
   80900:	1090e504 	addi	r2,r2,17300
   80904:	e0fff917 	ldw	r3,-28(fp)
   80908:	18c7883a 	add	r3,r3,r3
   8090c:	18c7883a 	add	r3,r3,r3
   80910:	10c5883a 	add	r2,r2,r3
   80914:	10c00017 	ldw	r3,0(r2)
   80918:	180b883a 	mov	r5,r3
   8091c:	e13ffc17 	ldw	r4,-16(fp)
   80920:	0082a700 	call	82a70 <__addsf3>
   80924:	1007883a 	mov	r3,r2
   80928:	e0fffc15 	stw	r3,-16(fp)
				tmp_ans = RELU(tmp_ans);
   8092c:	000b883a 	mov	r5,zero
   80930:	e13ffc17 	ldw	r4,-16(fp)
   80934:	00833780 	call	83378 <__gesf2>
   80938:	0080020e 	bge	zero,r2,80944 <Conv1+0x1b8>
   8093c:	e0bffc17 	ldw	r2,-16(fp)
   80940:	00000106 	br	80948 <Conv1+0x1bc>
   80944:	0005883a 	mov	r2,zero
   80948:	e0bffc15 	stw	r2,-16(fp)
				Conv1_Image[i][j][k] = tmp_ans;
   8094c:	040002f4 	movhi	r16,11
   80950:	8424ee04 	addi	r16,r16,-27720
   80954:	e0bff717 	ldw	r2,-36(fp)
   80958:	01400704 	movi	r5,28
   8095c:	1009883a 	mov	r4,r2
   80960:	0082a480 	call	82a48 <__mulsi3>
   80964:	1007883a 	mov	r3,r2
   80968:	e0bff817 	ldw	r2,-32(fp)
   8096c:	1885883a 	add	r2,r3,r2
   80970:	100690fa 	slli	r3,r2,3
   80974:	e0bff917 	ldw	r2,-28(fp)
   80978:	1885883a 	add	r2,r3,r2
   8097c:	1085883a 	add	r2,r2,r2
   80980:	1085883a 	add	r2,r2,r2
   80984:	8085883a 	add	r2,r16,r2
   80988:	e0fffc17 	ldw	r3,-16(fp)
   8098c:	10c00015 	stw	r3,0(r2)
	int i, j, k;
	int i2, j2;
	float tmp_ans;
	for (i = 0; i < IMAGE_DIM; i++)
		for (j = 0; j < IMAGE_DIM; j++)
			for (k = 0; k < CONV1_OUT_DIM; k++) {
   80990:	e0bff917 	ldw	r2,-28(fp)
   80994:	10800044 	addi	r2,r2,1
   80998:	e0bff915 	stw	r2,-28(fp)
   8099c:	e0bff917 	ldw	r2,-28(fp)
   809a0:	10800210 	cmplti	r2,r2,8
   809a4:	103f861e 	bne	r2,zero,807c0 <__alt_data_end+0xfffab090>
void Conv1() {
	int i, j, k;
	int i2, j2;
	float tmp_ans;
	for (i = 0; i < IMAGE_DIM; i++)
		for (j = 0; j < IMAGE_DIM; j++)
   809a8:	e0bff817 	ldw	r2,-32(fp)
   809ac:	10800044 	addi	r2,r2,1
   809b0:	e0bff815 	stw	r2,-32(fp)
   809b4:	e0bff817 	ldw	r2,-32(fp)
   809b8:	10800710 	cmplti	r2,r2,28
   809bc:	103f7e1e 	bne	r2,zero,807b8 <__alt_data_end+0xfffab088>

void Conv1() {
	int i, j, k;
	int i2, j2;
	float tmp_ans;
	for (i = 0; i < IMAGE_DIM; i++)
   809c0:	e0bff717 	ldw	r2,-36(fp)
   809c4:	10800044 	addi	r2,r2,1
   809c8:	e0bff715 	stw	r2,-36(fp)
   809cc:	e0bff717 	ldw	r2,-36(fp)
   809d0:	10800710 	cmplti	r2,r2,28
   809d4:	103f761e 	bne	r2,zero,807b0 <__alt_data_end+0xfffab080>
							tmp_ans += Conv1_W[CONV_MID + i2][CONV_MID + j2][0][k] * Input_Image[i + i2][j + j2];
				tmp_ans += Conv1_B[k];
				tmp_ans = RELU(tmp_ans);
				Conv1_Image[i][j][k] = tmp_ans;
			}
}
   809d8:	0001883a 	nop
   809dc:	e6fffd04 	addi	sp,fp,-12
   809e0:	dfc00417 	ldw	ra,16(sp)
   809e4:	df000317 	ldw	fp,12(sp)
   809e8:	dc800217 	ldw	r18,8(sp)
   809ec:	dc400117 	ldw	r17,4(sp)
   809f0:	dc000017 	ldw	r16,0(sp)
   809f4:	dec00504 	addi	sp,sp,20
   809f8:	f800283a 	ret

000809fc <max>:

float max(float x1, float x2, float x3, float x4) {
   809fc:	defff904 	addi	sp,sp,-28
   80a00:	dfc00615 	stw	ra,24(sp)
   80a04:	df000515 	stw	fp,20(sp)
   80a08:	df000504 	addi	fp,sp,20
   80a0c:	e13ffc15 	stw	r4,-16(fp)
   80a10:	e17ffd15 	stw	r5,-12(fp)
   80a14:	e1bffe15 	stw	r6,-8(fp)
   80a18:	e1ffff15 	stw	r7,-4(fp)
	float ans = x1;
   80a1c:	e0bffc17 	ldw	r2,-16(fp)
   80a20:	e0bffb15 	stw	r2,-20(fp)
	ans = (x2 > ans) ? x2 : ans;
   80a24:	e17ffb17 	ldw	r5,-20(fp)
   80a28:	e13ffd17 	ldw	r4,-12(fp)
   80a2c:	00833780 	call	83378 <__gesf2>
   80a30:	0080020e 	bge	zero,r2,80a3c <max+0x40>
   80a34:	e0bffd17 	ldw	r2,-12(fp)
   80a38:	00000106 	br	80a40 <max+0x44>
   80a3c:	e0bffb17 	ldw	r2,-20(fp)
   80a40:	e0bffb15 	stw	r2,-20(fp)
	ans = (x3 > ans) ? x3 : ans;
   80a44:	e17ffb17 	ldw	r5,-20(fp)
   80a48:	e13ffe17 	ldw	r4,-8(fp)
   80a4c:	00833780 	call	83378 <__gesf2>
   80a50:	0080020e 	bge	zero,r2,80a5c <max+0x60>
   80a54:	e0bffe17 	ldw	r2,-8(fp)
   80a58:	00000106 	br	80a60 <max+0x64>
   80a5c:	e0bffb17 	ldw	r2,-20(fp)
   80a60:	e0bffb15 	stw	r2,-20(fp)
	ans = (x4 > ans) ? x4 : ans;
   80a64:	e17ffb17 	ldw	r5,-20(fp)
   80a68:	e13fff17 	ldw	r4,-4(fp)
   80a6c:	00833780 	call	83378 <__gesf2>
   80a70:	0080020e 	bge	zero,r2,80a7c <max+0x80>
   80a74:	e0bfff17 	ldw	r2,-4(fp)
   80a78:	00000106 	br	80a80 <max+0x84>
   80a7c:	e0bffb17 	ldw	r2,-20(fp)
   80a80:	e0bffb15 	stw	r2,-20(fp)
	return ans;
   80a84:	e0bffb17 	ldw	r2,-20(fp)
   80a88:	1007883a 	mov	r3,r2
}
   80a8c:	1805883a 	mov	r2,r3
   80a90:	e037883a 	mov	sp,fp
   80a94:	dfc00117 	ldw	ra,4(sp)
   80a98:	df000017 	ldw	fp,0(sp)
   80a9c:	dec00204 	addi	sp,sp,8
   80aa0:	f800283a 	ret

00080aa4 <MaxPool1>:

void MaxPool1() {
   80aa4:	defff604 	addi	sp,sp,-40
   80aa8:	dfc00915 	stw	ra,36(sp)
   80aac:	df000815 	stw	fp,32(sp)
   80ab0:	dd000715 	stw	r20,28(sp)
   80ab4:	dcc00615 	stw	r19,24(sp)
   80ab8:	dc800515 	stw	r18,20(sp)
   80abc:	dc400415 	stw	r17,16(sp)
   80ac0:	dc000315 	stw	r16,12(sp)
   80ac4:	df000804 	addi	fp,sp,32
	int i, j, k;
	for (i = 0; i < IMAGE_DIM / 2; i++)
   80ac8:	e03ff815 	stw	zero,-32(fp)
   80acc:	00007506 	br	80ca4 <MaxPool1+0x200>
		for (j = 0; j < IMAGE_DIM / 2; j++)
   80ad0:	e03ff915 	stw	zero,-28(fp)
   80ad4:	00006d06 	br	80c8c <MaxPool1+0x1e8>
			for (k = 0; k < CONV1_OUT_DIM; k++)
   80ad8:	e03ffa15 	stw	zero,-24(fp)
   80adc:	00006506 	br	80c74 <MaxPool1+0x1d0>
				Pool1_Image[i][j][k] = max(Conv1_Image[i * 2][j * 2][k],
   80ae0:	e0bff817 	ldw	r2,-32(fp)
   80ae4:	1085883a 	add	r2,r2,r2
   80ae8:	1007883a 	mov	r3,r2
   80aec:	e0bff917 	ldw	r2,-28(fp)
   80af0:	1085883a 	add	r2,r2,r2
   80af4:	1023883a 	mov	r17,r2
   80af8:	040002f4 	movhi	r16,11
   80afc:	8424ee04 	addi	r16,r16,-27720
   80b00:	01400704 	movi	r5,28
   80b04:	1809883a 	mov	r4,r3
   80b08:	0082a480 	call	82a48 <__mulsi3>
   80b0c:	1445883a 	add	r2,r2,r17
   80b10:	100690fa 	slli	r3,r2,3
   80b14:	e0bffa17 	ldw	r2,-24(fp)
   80b18:	1885883a 	add	r2,r3,r2
   80b1c:	1085883a 	add	r2,r2,r2
   80b20:	1085883a 	add	r2,r2,r2
   80b24:	8085883a 	add	r2,r16,r2
   80b28:	14800017 	ldw	r18,0(r2)
					Conv1_Image[i * 2 + 1][j * 2][k],
   80b2c:	e0bff817 	ldw	r2,-32(fp)
   80b30:	1085883a 	add	r2,r2,r2
   80b34:	10c00044 	addi	r3,r2,1
   80b38:	e0bff917 	ldw	r2,-28(fp)
   80b3c:	1085883a 	add	r2,r2,r2
   80b40:	1023883a 	mov	r17,r2
void MaxPool1() {
	int i, j, k;
	for (i = 0; i < IMAGE_DIM / 2; i++)
		for (j = 0; j < IMAGE_DIM / 2; j++)
			for (k = 0; k < CONV1_OUT_DIM; k++)
				Pool1_Image[i][j][k] = max(Conv1_Image[i * 2][j * 2][k],
   80b44:	040002f4 	movhi	r16,11
   80b48:	8424ee04 	addi	r16,r16,-27720
   80b4c:	01400704 	movi	r5,28
   80b50:	1809883a 	mov	r4,r3
   80b54:	0082a480 	call	82a48 <__mulsi3>
   80b58:	1445883a 	add	r2,r2,r17
   80b5c:	100690fa 	slli	r3,r2,3
   80b60:	e0bffa17 	ldw	r2,-24(fp)
   80b64:	1885883a 	add	r2,r3,r2
   80b68:	1085883a 	add	r2,r2,r2
   80b6c:	1085883a 	add	r2,r2,r2
   80b70:	8085883a 	add	r2,r16,r2
   80b74:	14c00017 	ldw	r19,0(r2)
					Conv1_Image[i * 2 + 1][j * 2][k],
					Conv1_Image[i * 2][j * 2 + 1][k],
   80b78:	e0bff817 	ldw	r2,-32(fp)
   80b7c:	1085883a 	add	r2,r2,r2
   80b80:	1007883a 	mov	r3,r2
   80b84:	e0bff917 	ldw	r2,-28(fp)
   80b88:	1085883a 	add	r2,r2,r2
   80b8c:	14400044 	addi	r17,r2,1
void MaxPool1() {
	int i, j, k;
	for (i = 0; i < IMAGE_DIM / 2; i++)
		for (j = 0; j < IMAGE_DIM / 2; j++)
			for (k = 0; k < CONV1_OUT_DIM; k++)
				Pool1_Image[i][j][k] = max(Conv1_Image[i * 2][j * 2][k],
   80b90:	040002f4 	movhi	r16,11
   80b94:	8424ee04 	addi	r16,r16,-27720
   80b98:	01400704 	movi	r5,28
   80b9c:	1809883a 	mov	r4,r3
   80ba0:	0082a480 	call	82a48 <__mulsi3>
   80ba4:	1445883a 	add	r2,r2,r17
   80ba8:	100690fa 	slli	r3,r2,3
   80bac:	e0bffa17 	ldw	r2,-24(fp)
   80bb0:	1885883a 	add	r2,r3,r2
   80bb4:	1085883a 	add	r2,r2,r2
   80bb8:	1085883a 	add	r2,r2,r2
   80bbc:	8085883a 	add	r2,r16,r2
   80bc0:	15000017 	ldw	r20,0(r2)
					Conv1_Image[i * 2 + 1][j * 2][k],
					Conv1_Image[i * 2][j * 2 + 1][k],
					Conv1_Image[i * 2 + 1][j * 2 + 1][k]);
   80bc4:	e0bff817 	ldw	r2,-32(fp)
   80bc8:	1085883a 	add	r2,r2,r2
   80bcc:	10c00044 	addi	r3,r2,1
   80bd0:	e0bff917 	ldw	r2,-28(fp)
   80bd4:	1085883a 	add	r2,r2,r2
   80bd8:	14400044 	addi	r17,r2,1
void MaxPool1() {
	int i, j, k;
	for (i = 0; i < IMAGE_DIM / 2; i++)
		for (j = 0; j < IMAGE_DIM / 2; j++)
			for (k = 0; k < CONV1_OUT_DIM; k++)
				Pool1_Image[i][j][k] = max(Conv1_Image[i * 2][j * 2][k],
   80bdc:	040002f4 	movhi	r16,11
   80be0:	8424ee04 	addi	r16,r16,-27720
   80be4:	01400704 	movi	r5,28
   80be8:	1809883a 	mov	r4,r3
   80bec:	0082a480 	call	82a48 <__mulsi3>
   80bf0:	1445883a 	add	r2,r2,r17
   80bf4:	100690fa 	slli	r3,r2,3
   80bf8:	e0bffa17 	ldw	r2,-24(fp)
   80bfc:	1885883a 	add	r2,r3,r2
   80c00:	1085883a 	add	r2,r2,r2
   80c04:	1085883a 	add	r2,r2,r2
   80c08:	8085883a 	add	r2,r16,r2
   80c0c:	10c00017 	ldw	r3,0(r2)
   80c10:	180f883a 	mov	r7,r3
   80c14:	a00d883a 	mov	r6,r20
   80c18:	980b883a 	mov	r5,r19
   80c1c:	9009883a 	mov	r4,r18
   80c20:	00809fc0 	call	809fc <max>
   80c24:	1023883a 	mov	r17,r2
   80c28:	040002b4 	movhi	r16,10
   80c2c:	841ece04 	addi	r16,r16,31544
   80c30:	e0bff817 	ldw	r2,-32(fp)
   80c34:	01400384 	movi	r5,14
   80c38:	1009883a 	mov	r4,r2
   80c3c:	0082a480 	call	82a48 <__mulsi3>
   80c40:	1007883a 	mov	r3,r2
   80c44:	e0bff917 	ldw	r2,-28(fp)
   80c48:	1885883a 	add	r2,r3,r2
   80c4c:	100690fa 	slli	r3,r2,3
   80c50:	e0bffa17 	ldw	r2,-24(fp)
   80c54:	1885883a 	add	r2,r3,r2
   80c58:	1085883a 	add	r2,r2,r2
   80c5c:	1085883a 	add	r2,r2,r2
   80c60:	8085883a 	add	r2,r16,r2
   80c64:	14400015 	stw	r17,0(r2)

void MaxPool1() {
	int i, j, k;
	for (i = 0; i < IMAGE_DIM / 2; i++)
		for (j = 0; j < IMAGE_DIM / 2; j++)
			for (k = 0; k < CONV1_OUT_DIM; k++)
   80c68:	e0bffa17 	ldw	r2,-24(fp)
   80c6c:	10800044 	addi	r2,r2,1
   80c70:	e0bffa15 	stw	r2,-24(fp)
   80c74:	e0bffa17 	ldw	r2,-24(fp)
   80c78:	10800210 	cmplti	r2,r2,8
   80c7c:	103f981e 	bne	r2,zero,80ae0 <__alt_data_end+0xfffab3b0>
}

void MaxPool1() {
	int i, j, k;
	for (i = 0; i < IMAGE_DIM / 2; i++)
		for (j = 0; j < IMAGE_DIM / 2; j++)
   80c80:	e0bff917 	ldw	r2,-28(fp)
   80c84:	10800044 	addi	r2,r2,1
   80c88:	e0bff915 	stw	r2,-28(fp)
   80c8c:	e0bff917 	ldw	r2,-28(fp)
   80c90:	10800390 	cmplti	r2,r2,14
   80c94:	103f901e 	bne	r2,zero,80ad8 <__alt_data_end+0xfffab3a8>
	return ans;
}

void MaxPool1() {
	int i, j, k;
	for (i = 0; i < IMAGE_DIM / 2; i++)
   80c98:	e0bff817 	ldw	r2,-32(fp)
   80c9c:	10800044 	addi	r2,r2,1
   80ca0:	e0bff815 	stw	r2,-32(fp)
   80ca4:	e0bff817 	ldw	r2,-32(fp)
   80ca8:	10800390 	cmplti	r2,r2,14
   80cac:	103f881e 	bne	r2,zero,80ad0 <__alt_data_end+0xfffab3a0>
			for (k = 0; k < CONV1_OUT_DIM; k++)
				Pool1_Image[i][j][k] = max(Conv1_Image[i * 2][j * 2][k],
					Conv1_Image[i * 2 + 1][j * 2][k],
					Conv1_Image[i * 2][j * 2 + 1][k],
					Conv1_Image[i * 2 + 1][j * 2 + 1][k]);
}
   80cb0:	0001883a 	nop
   80cb4:	e6fffb04 	addi	sp,fp,-20
   80cb8:	dfc00617 	ldw	ra,24(sp)
   80cbc:	df000517 	ldw	fp,20(sp)
   80cc0:	dd000417 	ldw	r20,16(sp)
   80cc4:	dcc00317 	ldw	r19,12(sp)
   80cc8:	dc800217 	ldw	r18,8(sp)
   80ccc:	dc400117 	ldw	r17,4(sp)
   80cd0:	dc000017 	ldw	r16,0(sp)
   80cd4:	dec00704 	addi	sp,sp,28
   80cd8:	f800283a 	ret

00080cdc <Conv2>:

void Conv2() {
   80cdc:	defff404 	addi	sp,sp,-48
   80ce0:	dfc00b15 	stw	ra,44(sp)
   80ce4:	df000a15 	stw	fp,40(sp)
   80ce8:	dc800915 	stw	r18,36(sp)
   80cec:	dc400815 	stw	r17,32(sp)
   80cf0:	dc000715 	stw	r16,28(sp)
   80cf4:	df000a04 	addi	fp,sp,40
	int i, j, k;
	int i2, j2, k2;
	float tmp_ans;
	for (i = 0; i < IMAGE_DIM / 2; i++)
   80cf8:	e03ff615 	stw	zero,-40(fp)
   80cfc:	00009806 	br	80f60 <Conv2+0x284>
		for (j = 0; j < IMAGE_DIM / 2; j++)
   80d00:	e03ff715 	stw	zero,-36(fp)
   80d04:	00009006 	br	80f48 <Conv2+0x26c>
			for (k = 0; k < CONV2_OUT_DIM; k++) {
   80d08:	e03ff815 	stw	zero,-32(fp)
   80d0c:	00008806 	br	80f30 <Conv2+0x254>
				tmp_ans = 0.0;
   80d10:	e03ffc15 	stw	zero,-16(fp)
				for (i2 = -CONV_RANGE; i2 <= CONV_RANGE; i2++)
   80d14:	00bfffc4 	movi	r2,-1
   80d18:	e0bff915 	stw	r2,-28(fp)
   80d1c:	00005806 	br	80e80 <Conv2+0x1a4>
					for (j2 = -CONV_RANGE; j2 <= CONV_RANGE; j2++)
   80d20:	00bfffc4 	movi	r2,-1
   80d24:	e0bffa15 	stw	r2,-24(fp)
   80d28:	00004f06 	br	80e68 <Conv2+0x18c>
						for (k2 = -CONV_RANGE; k2 < CONV1_OUT_DIM; k2++)
   80d2c:	00bfffc4 	movi	r2,-1
   80d30:	e0bffb15 	stw	r2,-20(fp)
   80d34:	00004606 	br	80e50 <Conv2+0x174>
							if (i + i2 >= 0 && j + j2 >= 0 && i + i2 < IMAGE_DIM / 2 && j + j2 < IMAGE_DIM / 2)
   80d38:	e0fff617 	ldw	r3,-40(fp)
   80d3c:	e0bff917 	ldw	r2,-28(fp)
   80d40:	1885883a 	add	r2,r3,r2
   80d44:	10003f16 	blt	r2,zero,80e44 <Conv2+0x168>
   80d48:	e0fff717 	ldw	r3,-36(fp)
   80d4c:	e0bffa17 	ldw	r2,-24(fp)
   80d50:	1885883a 	add	r2,r3,r2
   80d54:	10003b16 	blt	r2,zero,80e44 <Conv2+0x168>
   80d58:	e0fff617 	ldw	r3,-40(fp)
   80d5c:	e0bff917 	ldw	r2,-28(fp)
   80d60:	1885883a 	add	r2,r3,r2
   80d64:	10800388 	cmpgei	r2,r2,14
   80d68:	1000361e 	bne	r2,zero,80e44 <Conv2+0x168>
   80d6c:	e0fff717 	ldw	r3,-36(fp)
   80d70:	e0bffa17 	ldw	r2,-24(fp)
   80d74:	1885883a 	add	r2,r3,r2
   80d78:	10800388 	cmpgei	r2,r2,14
   80d7c:	1000311e 	bne	r2,zero,80e44 <Conv2+0x168>
								tmp_ans += Conv2_W[CONV_MID + i2][CONV_MID + j2][k2][k] * Pool1_Image[i + i2][j + j2][k2];
   80d80:	e0bff917 	ldw	r2,-28(fp)
   80d84:	11000044 	addi	r4,r2,1
   80d88:	e0bffa17 	ldw	r2,-24(fp)
   80d8c:	11400044 	addi	r5,r2,1
   80d90:	00c002f4 	movhi	r3,11
   80d94:	18caf004 	addi	r3,r3,11200
   80d98:	2005883a 	mov	r2,r4
   80d9c:	1085883a 	add	r2,r2,r2
   80da0:	1105883a 	add	r2,r2,r4
   80da4:	1145883a 	add	r2,r2,r5
   80da8:	100890fa 	slli	r4,r2,3
   80dac:	e0bffb17 	ldw	r2,-20(fp)
   80db0:	2085883a 	add	r2,r4,r2
   80db4:	1085883a 	add	r2,r2,r2
   80db8:	1089883a 	add	r4,r2,r2
   80dbc:	e0bff817 	ldw	r2,-32(fp)
   80dc0:	2085883a 	add	r2,r4,r2
   80dc4:	1085883a 	add	r2,r2,r2
   80dc8:	1085883a 	add	r2,r2,r2
   80dcc:	1885883a 	add	r2,r3,r2
   80dd0:	14800017 	ldw	r18,0(r2)
   80dd4:	e0fff617 	ldw	r3,-40(fp)
   80dd8:	e0bff917 	ldw	r2,-28(fp)
   80ddc:	1889883a 	add	r4,r3,r2
   80de0:	e0fff717 	ldw	r3,-36(fp)
   80de4:	e0bffa17 	ldw	r2,-24(fp)
   80de8:	18a3883a 	add	r17,r3,r2
   80dec:	040002b4 	movhi	r16,10
   80df0:	841ece04 	addi	r16,r16,31544
   80df4:	01400384 	movi	r5,14
   80df8:	0082a480 	call	82a48 <__mulsi3>
   80dfc:	1445883a 	add	r2,r2,r17
   80e00:	100690fa 	slli	r3,r2,3
   80e04:	e0bffb17 	ldw	r2,-20(fp)
   80e08:	1885883a 	add	r2,r3,r2
   80e0c:	1085883a 	add	r2,r2,r2
   80e10:	1085883a 	add	r2,r2,r2
   80e14:	8085883a 	add	r2,r16,r2
   80e18:	10c00017 	ldw	r3,0(r2)
   80e1c:	180b883a 	mov	r5,r3
   80e20:	9009883a 	mov	r4,r18
   80e24:	00834340 	call	83434 <__mulsf3>
   80e28:	1007883a 	mov	r3,r2
   80e2c:	1805883a 	mov	r2,r3
   80e30:	100b883a 	mov	r5,r2
   80e34:	e13ffc17 	ldw	r4,-16(fp)
   80e38:	0082a700 	call	82a70 <__addsf3>
   80e3c:	1007883a 	mov	r3,r2
   80e40:	e0fffc15 	stw	r3,-16(fp)
		for (j = 0; j < IMAGE_DIM / 2; j++)
			for (k = 0; k < CONV2_OUT_DIM; k++) {
				tmp_ans = 0.0;
				for (i2 = -CONV_RANGE; i2 <= CONV_RANGE; i2++)
					for (j2 = -CONV_RANGE; j2 <= CONV_RANGE; j2++)
						for (k2 = -CONV_RANGE; k2 < CONV1_OUT_DIM; k2++)
   80e44:	e0bffb17 	ldw	r2,-20(fp)
   80e48:	10800044 	addi	r2,r2,1
   80e4c:	e0bffb15 	stw	r2,-20(fp)
   80e50:	e0bffb17 	ldw	r2,-20(fp)
   80e54:	10800210 	cmplti	r2,r2,8
   80e58:	103fb71e 	bne	r2,zero,80d38 <__alt_data_end+0xfffab608>
	for (i = 0; i < IMAGE_DIM / 2; i++)
		for (j = 0; j < IMAGE_DIM / 2; j++)
			for (k = 0; k < CONV2_OUT_DIM; k++) {
				tmp_ans = 0.0;
				for (i2 = -CONV_RANGE; i2 <= CONV_RANGE; i2++)
					for (j2 = -CONV_RANGE; j2 <= CONV_RANGE; j2++)
   80e5c:	e0bffa17 	ldw	r2,-24(fp)
   80e60:	10800044 	addi	r2,r2,1
   80e64:	e0bffa15 	stw	r2,-24(fp)
   80e68:	e0bffa17 	ldw	r2,-24(fp)
   80e6c:	10800090 	cmplti	r2,r2,2
   80e70:	103fae1e 	bne	r2,zero,80d2c <__alt_data_end+0xfffab5fc>
	float tmp_ans;
	for (i = 0; i < IMAGE_DIM / 2; i++)
		for (j = 0; j < IMAGE_DIM / 2; j++)
			for (k = 0; k < CONV2_OUT_DIM; k++) {
				tmp_ans = 0.0;
				for (i2 = -CONV_RANGE; i2 <= CONV_RANGE; i2++)
   80e74:	e0bff917 	ldw	r2,-28(fp)
   80e78:	10800044 	addi	r2,r2,1
   80e7c:	e0bff915 	stw	r2,-28(fp)
   80e80:	e0bff917 	ldw	r2,-28(fp)
   80e84:	10800090 	cmplti	r2,r2,2
   80e88:	103fa51e 	bne	r2,zero,80d20 <__alt_data_end+0xfffab5f0>
					for (j2 = -CONV_RANGE; j2 <= CONV_RANGE; j2++)
						for (k2 = -CONV_RANGE; k2 < CONV1_OUT_DIM; k2++)
							if (i + i2 >= 0 && j + j2 >= 0 && i + i2 < IMAGE_DIM / 2 && j + j2 < IMAGE_DIM / 2)
								tmp_ans += Conv2_W[CONV_MID + i2][CONV_MID + j2][k2][k] * Pool1_Image[i + i2][j + j2][k2];
				tmp_ans += Conv2_B[k];
   80e8c:	00800274 	movhi	r2,9
   80e90:	1090ed04 	addi	r2,r2,17332
   80e94:	e0fff817 	ldw	r3,-32(fp)
   80e98:	18c7883a 	add	r3,r3,r3
   80e9c:	18c7883a 	add	r3,r3,r3
   80ea0:	10c5883a 	add	r2,r2,r3
   80ea4:	10c00017 	ldw	r3,0(r2)
   80ea8:	180b883a 	mov	r5,r3
   80eac:	e13ffc17 	ldw	r4,-16(fp)
   80eb0:	0082a700 	call	82a70 <__addsf3>
   80eb4:	1007883a 	mov	r3,r2
   80eb8:	e0fffc15 	stw	r3,-16(fp)
				tmp_ans = RELU(tmp_ans);
   80ebc:	000b883a 	mov	r5,zero
   80ec0:	e13ffc17 	ldw	r4,-16(fp)
   80ec4:	00833780 	call	83378 <__gesf2>
   80ec8:	0080020e 	bge	zero,r2,80ed4 <Conv2+0x1f8>
   80ecc:	e0bffc17 	ldw	r2,-16(fp)
   80ed0:	00000106 	br	80ed8 <Conv2+0x1fc>
   80ed4:	0005883a 	mov	r2,zero
   80ed8:	e0bffc15 	stw	r2,-16(fp)
				Conv2_Image[i][j][k] = tmp_ans;
   80edc:	04000334 	movhi	r16,12
   80ee0:	8426b404 	addi	r16,r16,-25904
   80ee4:	e0bff617 	ldw	r2,-40(fp)
   80ee8:	01400384 	movi	r5,14
   80eec:	1009883a 	mov	r4,r2
   80ef0:	0082a480 	call	82a48 <__mulsi3>
   80ef4:	1007883a 	mov	r3,r2
   80ef8:	e0bff717 	ldw	r2,-36(fp)
   80efc:	1885883a 	add	r2,r3,r2
   80f00:	1085883a 	add	r2,r2,r2
   80f04:	1087883a 	add	r3,r2,r2
   80f08:	e0bff817 	ldw	r2,-32(fp)
   80f0c:	1885883a 	add	r2,r3,r2
   80f10:	1085883a 	add	r2,r2,r2
   80f14:	1085883a 	add	r2,r2,r2
   80f18:	8085883a 	add	r2,r16,r2
   80f1c:	e0fffc17 	ldw	r3,-16(fp)
   80f20:	10c00015 	stw	r3,0(r2)
	int i, j, k;
	int i2, j2, k2;
	float tmp_ans;
	for (i = 0; i < IMAGE_DIM / 2; i++)
		for (j = 0; j < IMAGE_DIM / 2; j++)
			for (k = 0; k < CONV2_OUT_DIM; k++) {
   80f24:	e0bff817 	ldw	r2,-32(fp)
   80f28:	10800044 	addi	r2,r2,1
   80f2c:	e0bff815 	stw	r2,-32(fp)
   80f30:	e0bff817 	ldw	r2,-32(fp)
   80f34:	10800110 	cmplti	r2,r2,4
   80f38:	103f751e 	bne	r2,zero,80d10 <__alt_data_end+0xfffab5e0>
void Conv2() {
	int i, j, k;
	int i2, j2, k2;
	float tmp_ans;
	for (i = 0; i < IMAGE_DIM / 2; i++)
		for (j = 0; j < IMAGE_DIM / 2; j++)
   80f3c:	e0bff717 	ldw	r2,-36(fp)
   80f40:	10800044 	addi	r2,r2,1
   80f44:	e0bff715 	stw	r2,-36(fp)
   80f48:	e0bff717 	ldw	r2,-36(fp)
   80f4c:	10800390 	cmplti	r2,r2,14
   80f50:	103f6d1e 	bne	r2,zero,80d08 <__alt_data_end+0xfffab5d8>

void Conv2() {
	int i, j, k;
	int i2, j2, k2;
	float tmp_ans;
	for (i = 0; i < IMAGE_DIM / 2; i++)
   80f54:	e0bff617 	ldw	r2,-40(fp)
   80f58:	10800044 	addi	r2,r2,1
   80f5c:	e0bff615 	stw	r2,-40(fp)
   80f60:	e0bff617 	ldw	r2,-40(fp)
   80f64:	10800390 	cmplti	r2,r2,14
   80f68:	103f651e 	bne	r2,zero,80d00 <__alt_data_end+0xfffab5d0>
								tmp_ans += Conv2_W[CONV_MID + i2][CONV_MID + j2][k2][k] * Pool1_Image[i + i2][j + j2][k2];
				tmp_ans += Conv2_B[k];
				tmp_ans = RELU(tmp_ans);
				Conv2_Image[i][j][k] = tmp_ans;
			}
}
   80f6c:	0001883a 	nop
   80f70:	e6fffd04 	addi	sp,fp,-12
   80f74:	dfc00417 	ldw	ra,16(sp)
   80f78:	df000317 	ldw	fp,12(sp)
   80f7c:	dc800217 	ldw	r18,8(sp)
   80f80:	dc400117 	ldw	r17,4(sp)
   80f84:	dc000017 	ldw	r16,0(sp)
   80f88:	dec00504 	addi	sp,sp,20
   80f8c:	f800283a 	ret

00080f90 <MaxPool2>:

void MaxPool2() {
   80f90:	defff604 	addi	sp,sp,-40
   80f94:	dfc00915 	stw	ra,36(sp)
   80f98:	df000815 	stw	fp,32(sp)
   80f9c:	dd000715 	stw	r20,28(sp)
   80fa0:	dcc00615 	stw	r19,24(sp)
   80fa4:	dc800515 	stw	r18,20(sp)
   80fa8:	dc400415 	stw	r17,16(sp)
   80fac:	dc000315 	stw	r16,12(sp)
   80fb0:	df000804 	addi	fp,sp,32
	int i, j, k;
	for (i = 0; i < IMAGE_DIM / 4; i++)
   80fb4:	e03ff815 	stw	zero,-32(fp)
   80fb8:	00007a06 	br	811a4 <MaxPool2+0x214>
		for (j = 0; j < IMAGE_DIM / 4; j++)
   80fbc:	e03ff915 	stw	zero,-28(fp)
   80fc0:	00007206 	br	8118c <MaxPool2+0x1fc>
			for (k = 0; k < CONV2_OUT_DIM; k++)
   80fc4:	e03ffa15 	stw	zero,-24(fp)
   80fc8:	00006a06 	br	81174 <MaxPool2+0x1e4>
				Pool2_Image[i][j][k] = max(Conv2_Image[i * 2][j * 2][k],
   80fcc:	e0bff817 	ldw	r2,-32(fp)
   80fd0:	1085883a 	add	r2,r2,r2
   80fd4:	1007883a 	mov	r3,r2
   80fd8:	e0bff917 	ldw	r2,-28(fp)
   80fdc:	1085883a 	add	r2,r2,r2
   80fe0:	1023883a 	mov	r17,r2
   80fe4:	04000334 	movhi	r16,12
   80fe8:	8426b404 	addi	r16,r16,-25904
   80fec:	01400384 	movi	r5,14
   80ff0:	1809883a 	mov	r4,r3
   80ff4:	0082a480 	call	82a48 <__mulsi3>
   80ff8:	1445883a 	add	r2,r2,r17
   80ffc:	1085883a 	add	r2,r2,r2
   81000:	1087883a 	add	r3,r2,r2
   81004:	e0bffa17 	ldw	r2,-24(fp)
   81008:	1885883a 	add	r2,r3,r2
   8100c:	1085883a 	add	r2,r2,r2
   81010:	1085883a 	add	r2,r2,r2
   81014:	8085883a 	add	r2,r16,r2
   81018:	14800017 	ldw	r18,0(r2)
					Conv2_Image[i * 2 + 1][j * 2][k],
   8101c:	e0bff817 	ldw	r2,-32(fp)
   81020:	1085883a 	add	r2,r2,r2
   81024:	10c00044 	addi	r3,r2,1
   81028:	e0bff917 	ldw	r2,-28(fp)
   8102c:	1085883a 	add	r2,r2,r2
   81030:	1023883a 	mov	r17,r2
void MaxPool2() {
	int i, j, k;
	for (i = 0; i < IMAGE_DIM / 4; i++)
		for (j = 0; j < IMAGE_DIM / 4; j++)
			for (k = 0; k < CONV2_OUT_DIM; k++)
				Pool2_Image[i][j][k] = max(Conv2_Image[i * 2][j * 2][k],
   81034:	04000334 	movhi	r16,12
   81038:	8426b404 	addi	r16,r16,-25904
   8103c:	01400384 	movi	r5,14
   81040:	1809883a 	mov	r4,r3
   81044:	0082a480 	call	82a48 <__mulsi3>
   81048:	1445883a 	add	r2,r2,r17
   8104c:	1085883a 	add	r2,r2,r2
   81050:	1087883a 	add	r3,r2,r2
   81054:	e0bffa17 	ldw	r2,-24(fp)
   81058:	1885883a 	add	r2,r3,r2
   8105c:	1085883a 	add	r2,r2,r2
   81060:	1085883a 	add	r2,r2,r2
   81064:	8085883a 	add	r2,r16,r2
   81068:	14c00017 	ldw	r19,0(r2)
					Conv2_Image[i * 2 + 1][j * 2][k],
					Conv2_Image[i * 2][j * 2 + 1][k],
   8106c:	e0bff817 	ldw	r2,-32(fp)
   81070:	1085883a 	add	r2,r2,r2
   81074:	1007883a 	mov	r3,r2
   81078:	e0bff917 	ldw	r2,-28(fp)
   8107c:	1085883a 	add	r2,r2,r2
   81080:	14400044 	addi	r17,r2,1
void MaxPool2() {
	int i, j, k;
	for (i = 0; i < IMAGE_DIM / 4; i++)
		for (j = 0; j < IMAGE_DIM / 4; j++)
			for (k = 0; k < CONV2_OUT_DIM; k++)
				Pool2_Image[i][j][k] = max(Conv2_Image[i * 2][j * 2][k],
   81084:	04000334 	movhi	r16,12
   81088:	8426b404 	addi	r16,r16,-25904
   8108c:	01400384 	movi	r5,14
   81090:	1809883a 	mov	r4,r3
   81094:	0082a480 	call	82a48 <__mulsi3>
   81098:	1445883a 	add	r2,r2,r17
   8109c:	1085883a 	add	r2,r2,r2
   810a0:	1087883a 	add	r3,r2,r2
   810a4:	e0bffa17 	ldw	r2,-24(fp)
   810a8:	1885883a 	add	r2,r3,r2
   810ac:	1085883a 	add	r2,r2,r2
   810b0:	1085883a 	add	r2,r2,r2
   810b4:	8085883a 	add	r2,r16,r2
   810b8:	15000017 	ldw	r20,0(r2)
					Conv2_Image[i * 2 + 1][j * 2][k],
					Conv2_Image[i * 2][j * 2 + 1][k],
					Conv2_Image[i * 2 + 1][j * 2 + 1][k]);
   810bc:	e0bff817 	ldw	r2,-32(fp)
   810c0:	1085883a 	add	r2,r2,r2
   810c4:	10c00044 	addi	r3,r2,1
   810c8:	e0bff917 	ldw	r2,-28(fp)
   810cc:	1085883a 	add	r2,r2,r2
   810d0:	14400044 	addi	r17,r2,1
void MaxPool2() {
	int i, j, k;
	for (i = 0; i < IMAGE_DIM / 4; i++)
		for (j = 0; j < IMAGE_DIM / 4; j++)
			for (k = 0; k < CONV2_OUT_DIM; k++)
				Pool2_Image[i][j][k] = max(Conv2_Image[i * 2][j * 2][k],
   810d4:	04000334 	movhi	r16,12
   810d8:	8426b404 	addi	r16,r16,-25904
   810dc:	01400384 	movi	r5,14
   810e0:	1809883a 	mov	r4,r3
   810e4:	0082a480 	call	82a48 <__mulsi3>
   810e8:	1445883a 	add	r2,r2,r17
   810ec:	1085883a 	add	r2,r2,r2
   810f0:	1087883a 	add	r3,r2,r2
   810f4:	e0bffa17 	ldw	r2,-24(fp)
   810f8:	1885883a 	add	r2,r3,r2
   810fc:	1085883a 	add	r2,r2,r2
   81100:	1085883a 	add	r2,r2,r2
   81104:	8085883a 	add	r2,r16,r2
   81108:	10c00017 	ldw	r3,0(r2)
   8110c:	180f883a 	mov	r7,r3
   81110:	a00d883a 	mov	r6,r20
   81114:	980b883a 	mov	r5,r19
   81118:	9009883a 	mov	r4,r18
   8111c:	00809fc0 	call	809fc <max>
   81120:	1023883a 	mov	r17,r2
   81124:	04000334 	movhi	r16,12
   81128:	8429c404 	addi	r16,r16,-22768
   8112c:	e0bff817 	ldw	r2,-32(fp)
   81130:	014001c4 	movi	r5,7
   81134:	1009883a 	mov	r4,r2
   81138:	0082a480 	call	82a48 <__mulsi3>
   8113c:	1007883a 	mov	r3,r2
   81140:	e0bff917 	ldw	r2,-28(fp)
   81144:	1885883a 	add	r2,r3,r2
   81148:	1085883a 	add	r2,r2,r2
   8114c:	1087883a 	add	r3,r2,r2
   81150:	e0bffa17 	ldw	r2,-24(fp)
   81154:	1885883a 	add	r2,r3,r2
   81158:	1085883a 	add	r2,r2,r2
   8115c:	1085883a 	add	r2,r2,r2
   81160:	8085883a 	add	r2,r16,r2
   81164:	14400015 	stw	r17,0(r2)

void MaxPool2() {
	int i, j, k;
	for (i = 0; i < IMAGE_DIM / 4; i++)
		for (j = 0; j < IMAGE_DIM / 4; j++)
			for (k = 0; k < CONV2_OUT_DIM; k++)
   81168:	e0bffa17 	ldw	r2,-24(fp)
   8116c:	10800044 	addi	r2,r2,1
   81170:	e0bffa15 	stw	r2,-24(fp)
   81174:	e0bffa17 	ldw	r2,-24(fp)
   81178:	10800110 	cmplti	r2,r2,4
   8117c:	103f931e 	bne	r2,zero,80fcc <__alt_data_end+0xfffab89c>
}

void MaxPool2() {
	int i, j, k;
	for (i = 0; i < IMAGE_DIM / 4; i++)
		for (j = 0; j < IMAGE_DIM / 4; j++)
   81180:	e0bff917 	ldw	r2,-28(fp)
   81184:	10800044 	addi	r2,r2,1
   81188:	e0bff915 	stw	r2,-28(fp)
   8118c:	e0bff917 	ldw	r2,-28(fp)
   81190:	108001d0 	cmplti	r2,r2,7
   81194:	103f8b1e 	bne	r2,zero,80fc4 <__alt_data_end+0xfffab894>
			}
}

void MaxPool2() {
	int i, j, k;
	for (i = 0; i < IMAGE_DIM / 4; i++)
   81198:	e0bff817 	ldw	r2,-32(fp)
   8119c:	10800044 	addi	r2,r2,1
   811a0:	e0bff815 	stw	r2,-32(fp)
   811a4:	e0bff817 	ldw	r2,-32(fp)
   811a8:	108001d0 	cmplti	r2,r2,7
   811ac:	103f831e 	bne	r2,zero,80fbc <__alt_data_end+0xfffab88c>
			for (k = 0; k < CONV2_OUT_DIM; k++)
				Pool2_Image[i][j][k] = max(Conv2_Image[i * 2][j * 2][k],
					Conv2_Image[i * 2 + 1][j * 2][k],
					Conv2_Image[i * 2][j * 2 + 1][k],
					Conv2_Image[i * 2 + 1][j * 2 + 1][k]);
}
   811b0:	0001883a 	nop
   811b4:	e6fffb04 	addi	sp,fp,-20
   811b8:	dfc00617 	ldw	ra,24(sp)
   811bc:	df000517 	ldw	fp,20(sp)
   811c0:	dd000417 	ldw	r20,16(sp)
   811c4:	dcc00317 	ldw	r19,12(sp)
   811c8:	dc800217 	ldw	r18,8(sp)
   811cc:	dc400117 	ldw	r17,4(sp)
   811d0:	dc000017 	ldw	r16,0(sp)
   811d4:	dec00704 	addi	sp,sp,28
   811d8:	f800283a 	ret

000811dc <Flatten>:

void Flatten() {
   811dc:	defff904 	addi	sp,sp,-28
   811e0:	dfc00615 	stw	ra,24(sp)
   811e4:	df000515 	stw	fp,20(sp)
   811e8:	dc400415 	stw	r17,16(sp)
   811ec:	dc000315 	stw	r16,12(sp)
   811f0:	df000504 	addi	fp,sp,20
	int i, j, k;
	for (i = 0; i < IMAGE_DIM / 4; i++)
   811f4:	e03ffb15 	stw	zero,-20(fp)
   811f8:	00003506 	br	812d0 <Flatten+0xf4>
		for (j = 0; j < IMAGE_DIM / 4; j++)
   811fc:	e03ffc15 	stw	zero,-16(fp)
   81200:	00002d06 	br	812b8 <Flatten+0xdc>
			for (k = 0; k < CONV2_OUT_DIM; k++)
   81204:	e03ffd15 	stw	zero,-12(fp)
   81208:	00002506 	br	812a0 <Flatten+0xc4>
				Flat_Image[i*(IMAGE_DIM / 4)*CONV2_OUT_DIM + j * CONV2_OUT_DIM + k] = Pool2_Image[i][j][k];
   8120c:	014001c4 	movi	r5,7
   81210:	e13ffb17 	ldw	r4,-20(fp)
   81214:	0082a480 	call	82a48 <__mulsi3>
   81218:	1007883a 	mov	r3,r2
   8121c:	e0bffc17 	ldw	r2,-16(fp)
   81220:	1885883a 	add	r2,r3,r2
   81224:	1085883a 	add	r2,r2,r2
   81228:	1085883a 	add	r2,r2,r2
   8122c:	1007883a 	mov	r3,r2
   81230:	e0bffd17 	ldw	r2,-12(fp)
   81234:	18a3883a 	add	r17,r3,r2
   81238:	04000334 	movhi	r16,12
   8123c:	8429c404 	addi	r16,r16,-22768
   81240:	e0bffb17 	ldw	r2,-20(fp)
   81244:	014001c4 	movi	r5,7
   81248:	1009883a 	mov	r4,r2
   8124c:	0082a480 	call	82a48 <__mulsi3>
   81250:	1007883a 	mov	r3,r2
   81254:	e0bffc17 	ldw	r2,-16(fp)
   81258:	1885883a 	add	r2,r3,r2
   8125c:	1085883a 	add	r2,r2,r2
   81260:	1087883a 	add	r3,r2,r2
   81264:	e0bffd17 	ldw	r2,-12(fp)
   81268:	1885883a 	add	r2,r3,r2
   8126c:	1085883a 	add	r2,r2,r2
   81270:	1085883a 	add	r2,r2,r2
   81274:	8085883a 	add	r2,r16,r2
   81278:	11000017 	ldw	r4,0(r2)
   8127c:	008002f4 	movhi	r2,11
   81280:	108c1004 	addi	r2,r2,12352
   81284:	8c47883a 	add	r3,r17,r17
   81288:	18c7883a 	add	r3,r3,r3
   8128c:	10c5883a 	add	r2,r2,r3
   81290:	11000015 	stw	r4,0(r2)

void Flatten() {
	int i, j, k;
	for (i = 0; i < IMAGE_DIM / 4; i++)
		for (j = 0; j < IMAGE_DIM / 4; j++)
			for (k = 0; k < CONV2_OUT_DIM; k++)
   81294:	e0bffd17 	ldw	r2,-12(fp)
   81298:	10800044 	addi	r2,r2,1
   8129c:	e0bffd15 	stw	r2,-12(fp)
   812a0:	e0bffd17 	ldw	r2,-12(fp)
   812a4:	10800110 	cmplti	r2,r2,4
   812a8:	103fd81e 	bne	r2,zero,8120c <__alt_data_end+0xfffabadc>
}

void Flatten() {
	int i, j, k;
	for (i = 0; i < IMAGE_DIM / 4; i++)
		for (j = 0; j < IMAGE_DIM / 4; j++)
   812ac:	e0bffc17 	ldw	r2,-16(fp)
   812b0:	10800044 	addi	r2,r2,1
   812b4:	e0bffc15 	stw	r2,-16(fp)
   812b8:	e0bffc17 	ldw	r2,-16(fp)
   812bc:	108001d0 	cmplti	r2,r2,7
   812c0:	103fd01e 	bne	r2,zero,81204 <__alt_data_end+0xfffabad4>
					Conv2_Image[i * 2 + 1][j * 2 + 1][k]);
}

void Flatten() {
	int i, j, k;
	for (i = 0; i < IMAGE_DIM / 4; i++)
   812c4:	e0bffb17 	ldw	r2,-20(fp)
   812c8:	10800044 	addi	r2,r2,1
   812cc:	e0bffb15 	stw	r2,-20(fp)
   812d0:	e0bffb17 	ldw	r2,-20(fp)
   812d4:	108001d0 	cmplti	r2,r2,7
   812d8:	103fc81e 	bne	r2,zero,811fc <__alt_data_end+0xfffabacc>
		for (j = 0; j < IMAGE_DIM / 4; j++)
			for (k = 0; k < CONV2_OUT_DIM; k++)
				Flat_Image[i*(IMAGE_DIM / 4)*CONV2_OUT_DIM + j * CONV2_OUT_DIM + k] = Pool2_Image[i][j][k];
}
   812dc:	0001883a 	nop
   812e0:	e6fffe04 	addi	sp,fp,-8
   812e4:	dfc00317 	ldw	ra,12(sp)
   812e8:	df000217 	ldw	fp,8(sp)
   812ec:	dc400117 	ldw	r17,4(sp)
   812f0:	dc000017 	ldw	r16,0(sp)
   812f4:	dec00404 	addi	sp,sp,16
   812f8:	f800283a 	ret

000812fc <Fc1>:

void Fc1() {
   812fc:	defffb04 	addi	sp,sp,-20
   81300:	dfc00415 	stw	ra,16(sp)
   81304:	df000315 	stw	fp,12(sp)
   81308:	df000304 	addi	fp,sp,12
	int i, j;
	float tmp_ans;
	for (i = 0; i < FC1_OUT_DIM; i++) {
   8130c:	e03ffd15 	stw	zero,-12(fp)
   81310:	00004306 	br	81420 <Fc1+0x124>
		tmp_ans = 0.0;
   81314:	e03fff15 	stw	zero,-4(fp)
		for (j = 0; j < (IMAGE_DIM / 4)*(IMAGE_DIM / 4)*CONV2_OUT_DIM; j++)
   81318:	e03ffe15 	stw	zero,-8(fp)
   8131c:	00001e06 	br	81398 <Fc1+0x9c>
			tmp_ans += Flat_Image[j] * Fc1_W[j][i];
   81320:	008002f4 	movhi	r2,11
   81324:	108c1004 	addi	r2,r2,12352
   81328:	e0fffe17 	ldw	r3,-8(fp)
   8132c:	18c7883a 	add	r3,r3,r3
   81330:	18c7883a 	add	r3,r3,r3
   81334:	10c5883a 	add	r2,r2,r3
   81338:	11800017 	ldw	r6,0(r2)
   8133c:	008002f4 	movhi	r2,11
   81340:	108cf404 	addi	r2,r2,13264
   81344:	e0fffe17 	ldw	r3,-8(fp)
   81348:	1808917a 	slli	r4,r3,5
   8134c:	e0fffd17 	ldw	r3,-12(fp)
   81350:	20c7883a 	add	r3,r4,r3
   81354:	18c7883a 	add	r3,r3,r3
   81358:	18c7883a 	add	r3,r3,r3
   8135c:	10c5883a 	add	r2,r2,r3
   81360:	10c00017 	ldw	r3,0(r2)
   81364:	180b883a 	mov	r5,r3
   81368:	3009883a 	mov	r4,r6
   8136c:	00834340 	call	83434 <__mulsf3>
   81370:	1007883a 	mov	r3,r2
   81374:	1805883a 	mov	r2,r3
   81378:	100b883a 	mov	r5,r2
   8137c:	e13fff17 	ldw	r4,-4(fp)
   81380:	0082a700 	call	82a70 <__addsf3>
   81384:	1007883a 	mov	r3,r2
   81388:	e0ffff15 	stw	r3,-4(fp)
void Fc1() {
	int i, j;
	float tmp_ans;
	for (i = 0; i < FC1_OUT_DIM; i++) {
		tmp_ans = 0.0;
		for (j = 0; j < (IMAGE_DIM / 4)*(IMAGE_DIM / 4)*CONV2_OUT_DIM; j++)
   8138c:	e0bffe17 	ldw	r2,-8(fp)
   81390:	10800044 	addi	r2,r2,1
   81394:	e0bffe15 	stw	r2,-8(fp)
   81398:	e0bffe17 	ldw	r2,-8(fp)
   8139c:	10803110 	cmplti	r2,r2,196
   813a0:	103fdf1e 	bne	r2,zero,81320 <__alt_data_end+0xfffabbf0>
			tmp_ans += Flat_Image[j] * Fc1_W[j][i];
		tmp_ans += Fc1_B[i];
   813a4:	00800274 	movhi	r2,9
   813a8:	1090f104 	addi	r2,r2,17348
   813ac:	e0fffd17 	ldw	r3,-12(fp)
   813b0:	18c7883a 	add	r3,r3,r3
   813b4:	18c7883a 	add	r3,r3,r3
   813b8:	10c5883a 	add	r2,r2,r3
   813bc:	10c00017 	ldw	r3,0(r2)
   813c0:	180b883a 	mov	r5,r3
   813c4:	e13fff17 	ldw	r4,-4(fp)
   813c8:	0082a700 	call	82a70 <__addsf3>
   813cc:	1007883a 	mov	r3,r2
   813d0:	e0ffff15 	stw	r3,-4(fp)
		tmp_ans = RELU(tmp_ans);
   813d4:	000b883a 	mov	r5,zero
   813d8:	e13fff17 	ldw	r4,-4(fp)
   813dc:	00833780 	call	83378 <__gesf2>
   813e0:	0080020e 	bge	zero,r2,813ec <Fc1+0xf0>
   813e4:	e0bfff17 	ldw	r2,-4(fp)
   813e8:	00000106 	br	813f0 <Fc1+0xf4>
   813ec:	0005883a 	mov	r2,zero
   813f0:	e0bfff15 	stw	r2,-4(fp)
		FC1_Image[i] = tmp_ans;
   813f4:	008002f4 	movhi	r2,11
   813f8:	108cd404 	addi	r2,r2,13136
   813fc:	e0fffd17 	ldw	r3,-12(fp)
   81400:	18c7883a 	add	r3,r3,r3
   81404:	18c7883a 	add	r3,r3,r3
   81408:	10c5883a 	add	r2,r2,r3
   8140c:	e0ffff17 	ldw	r3,-4(fp)
   81410:	10c00015 	stw	r3,0(r2)
}

void Fc1() {
	int i, j;
	float tmp_ans;
	for (i = 0; i < FC1_OUT_DIM; i++) {
   81414:	e0bffd17 	ldw	r2,-12(fp)
   81418:	10800044 	addi	r2,r2,1
   8141c:	e0bffd15 	stw	r2,-12(fp)
   81420:	e0bffd17 	ldw	r2,-12(fp)
   81424:	10800810 	cmplti	r2,r2,32
   81428:	103fba1e 	bne	r2,zero,81314 <__alt_data_end+0xfffabbe4>
			tmp_ans += Flat_Image[j] * Fc1_W[j][i];
		tmp_ans += Fc1_B[i];
		tmp_ans = RELU(tmp_ans);
		FC1_Image[i] = tmp_ans;
	}
}
   8142c:	0001883a 	nop
   81430:	e037883a 	mov	sp,fp
   81434:	dfc00117 	ldw	ra,4(sp)
   81438:	df000017 	ldw	fp,0(sp)
   8143c:	dec00204 	addi	sp,sp,8
   81440:	f800283a 	ret

00081444 <Fc2>:

void Fc2() {
   81444:	defff904 	addi	sp,sp,-28
   81448:	dfc00615 	stw	ra,24(sp)
   8144c:	df000515 	stw	fp,20(sp)
   81450:	dc400415 	stw	r17,16(sp)
   81454:	dc000315 	stw	r16,12(sp)
   81458:	df000504 	addi	fp,sp,20
	int i, j;
	float tmp_ans;
	for (i = 0; i < FC2_OUT_DIM; i++) {
   8145c:	e03ffb15 	stw	zero,-20(fp)
   81460:	00003e06 	br	8155c <Fc2+0x118>
		tmp_ans = 0.0;
   81464:	e03ffd15 	stw	zero,-12(fp)
		for (j = 0; j < FC1_OUT_DIM; j++)
   81468:	e03ffc15 	stw	zero,-16(fp)
   8146c:	00002106 	br	814f4 <Fc2+0xb0>
			tmp_ans += FC1_Image[j] * Fc2_W[j][i];
   81470:	008002f4 	movhi	r2,11
   81474:	108cd404 	addi	r2,r2,13136
   81478:	e0fffc17 	ldw	r3,-16(fp)
   8147c:	18c7883a 	add	r3,r3,r3
   81480:	18c7883a 	add	r3,r3,r3
   81484:	10c5883a 	add	r2,r2,r3
   81488:	14400017 	ldw	r17,0(r2)
   8148c:	04000334 	movhi	r16,12
   81490:	84257404 	addi	r16,r16,-27184
   81494:	e0bffc17 	ldw	r2,-16(fp)
   81498:	01400284 	movi	r5,10
   8149c:	1009883a 	mov	r4,r2
   814a0:	0082a480 	call	82a48 <__mulsi3>
   814a4:	1007883a 	mov	r3,r2
   814a8:	e0bffb17 	ldw	r2,-20(fp)
   814ac:	1885883a 	add	r2,r3,r2
   814b0:	1085883a 	add	r2,r2,r2
   814b4:	1085883a 	add	r2,r2,r2
   814b8:	8085883a 	add	r2,r16,r2
   814bc:	10c00017 	ldw	r3,0(r2)
   814c0:	180b883a 	mov	r5,r3
   814c4:	8809883a 	mov	r4,r17
   814c8:	00834340 	call	83434 <__mulsf3>
   814cc:	1007883a 	mov	r3,r2
   814d0:	1805883a 	mov	r2,r3
   814d4:	100b883a 	mov	r5,r2
   814d8:	e13ffd17 	ldw	r4,-12(fp)
   814dc:	0082a700 	call	82a70 <__addsf3>
   814e0:	1007883a 	mov	r3,r2
   814e4:	e0fffd15 	stw	r3,-12(fp)
void Fc2() {
	int i, j;
	float tmp_ans;
	for (i = 0; i < FC2_OUT_DIM; i++) {
		tmp_ans = 0.0;
		for (j = 0; j < FC1_OUT_DIM; j++)
   814e8:	e0bffc17 	ldw	r2,-16(fp)
   814ec:	10800044 	addi	r2,r2,1
   814f0:	e0bffc15 	stw	r2,-16(fp)
   814f4:	e0bffc17 	ldw	r2,-16(fp)
   814f8:	10800810 	cmplti	r2,r2,32
   814fc:	103fdc1e 	bne	r2,zero,81470 <__alt_data_end+0xfffabd40>
			tmp_ans += FC1_Image[j] * Fc2_W[j][i];
		tmp_ans += Fc2_B[i];
   81500:	00800274 	movhi	r2,9
   81504:	10911104 	addi	r2,r2,17476
   81508:	e0fffb17 	ldw	r3,-20(fp)
   8150c:	18c7883a 	add	r3,r3,r3
   81510:	18c7883a 	add	r3,r3,r3
   81514:	10c5883a 	add	r2,r2,r3
   81518:	10c00017 	ldw	r3,0(r2)
   8151c:	180b883a 	mov	r5,r3
   81520:	e13ffd17 	ldw	r4,-12(fp)
   81524:	0082a700 	call	82a70 <__addsf3>
   81528:	1007883a 	mov	r3,r2
   8152c:	e0fffd15 	stw	r3,-12(fp)
		FC2_Image[i] = tmp_ans;
   81530:	008002f4 	movhi	r2,11
   81534:	1087d604 	addi	r2,r2,8024
   81538:	e0fffb17 	ldw	r3,-20(fp)
   8153c:	18c7883a 	add	r3,r3,r3
   81540:	18c7883a 	add	r3,r3,r3
   81544:	10c5883a 	add	r2,r2,r3
   81548:	e0fffd17 	ldw	r3,-12(fp)
   8154c:	10c00015 	stw	r3,0(r2)
}

void Fc2() {
	int i, j;
	float tmp_ans;
	for (i = 0; i < FC2_OUT_DIM; i++) {
   81550:	e0bffb17 	ldw	r2,-20(fp)
   81554:	10800044 	addi	r2,r2,1
   81558:	e0bffb15 	stw	r2,-20(fp)
   8155c:	e0bffb17 	ldw	r2,-20(fp)
   81560:	10800290 	cmplti	r2,r2,10
   81564:	103fbf1e 	bne	r2,zero,81464 <__alt_data_end+0xfffabd34>
		for (j = 0; j < FC1_OUT_DIM; j++)
			tmp_ans += FC1_Image[j] * Fc2_W[j][i];
		tmp_ans += Fc2_B[i];
		FC2_Image[i] = tmp_ans;
	}
}
   81568:	0001883a 	nop
   8156c:	e6fffe04 	addi	sp,fp,-8
   81570:	dfc00317 	ldw	ra,12(sp)
   81574:	df000217 	ldw	fp,8(sp)
   81578:	dc400117 	ldw	r17,4(sp)
   8157c:	dc000017 	ldw	r16,0(sp)
   81580:	dec00404 	addi	sp,sp,16
   81584:	f800283a 	ret

00081588 <Get_Answer>:

void Get_Answer() {
   81588:	defff904 	addi	sp,sp,-28
   8158c:	dfc00615 	stw	ra,24(sp)
   81590:	df000515 	stw	fp,20(sp)
   81594:	dc000415 	stw	r16,16(sp)
   81598:	df000504 	addi	fp,sp,20
	float max = FC2_Image[0];
   8159c:	008002f4 	movhi	r2,11
   815a0:	1087d604 	addi	r2,r2,8024
   815a4:	10800017 	ldw	r2,0(r2)
   815a8:	e0bffb15 	stw	r2,-20(fp)
	int max_point = 0;
   815ac:	e03ffc15 	stw	zero,-16(fp)
	int i;
	for (i = 1; i < FC2_OUT_DIM; i++)
   815b0:	00800044 	movi	r2,1
   815b4:	e0bffd15 	stw	r2,-12(fp)
   815b8:	00001806 	br	8161c <Get_Answer+0x94>
		if (FC2_Image[i] > max) {
   815bc:	008002f4 	movhi	r2,11
   815c0:	1087d604 	addi	r2,r2,8024
   815c4:	e0fffd17 	ldw	r3,-12(fp)
   815c8:	18c7883a 	add	r3,r3,r3
   815cc:	18c7883a 	add	r3,r3,r3
   815d0:	10c5883a 	add	r2,r2,r3
   815d4:	10c00017 	ldw	r3,0(r2)
   815d8:	e17ffb17 	ldw	r5,-20(fp)
   815dc:	1809883a 	mov	r4,r3
   815e0:	00833780 	call	83378 <__gesf2>
   815e4:	00800a0e 	bge	zero,r2,81610 <Get_Answer+0x88>
			max = FC2_Image[i];
   815e8:	008002f4 	movhi	r2,11
   815ec:	1087d604 	addi	r2,r2,8024
   815f0:	e0fffd17 	ldw	r3,-12(fp)
   815f4:	18c7883a 	add	r3,r3,r3
   815f8:	18c7883a 	add	r3,r3,r3
   815fc:	10c5883a 	add	r2,r2,r3
   81600:	10800017 	ldw	r2,0(r2)
   81604:	e0bffb15 	stw	r2,-20(fp)
			max_point = i;
   81608:	e0bffd17 	ldw	r2,-12(fp)
   8160c:	e0bffc15 	stw	r2,-16(fp)

void Get_Answer() {
	float max = FC2_Image[0];
	int max_point = 0;
	int i;
	for (i = 1; i < FC2_OUT_DIM; i++)
   81610:	e0bffd17 	ldw	r2,-12(fp)
   81614:	10800044 	addi	r2,r2,1
   81618:	e0bffd15 	stw	r2,-12(fp)
   8161c:	e0bffd17 	ldw	r2,-12(fp)
   81620:	10800290 	cmplti	r2,r2,10
   81624:	103fe51e 	bne	r2,zero,815bc <__alt_data_end+0xfffabe8c>
		if (FC2_Image[i] > max) {
			max = FC2_Image[i];
			max_point = i;
		}
	float sum = 0.0;
   81628:	e03ffe15 	stw	zero,-8(fp)
	for(i = 0; i < FC2_OUT_DIM; i++) {
   8162c:	e03ffd15 	stw	zero,-12(fp)
   81630:	00002a06 	br	816dc <Get_Answer+0x154>
		Softmax[i] = exp(FC2_Image[i]);
   81634:	008002f4 	movhi	r2,11
   81638:	1087d604 	addi	r2,r2,8024
   8163c:	e0fffd17 	ldw	r3,-12(fp)
   81640:	18c7883a 	add	r3,r3,r3
   81644:	18c7883a 	add	r3,r3,r3
   81648:	10c5883a 	add	r2,r2,r3
   8164c:	10c00017 	ldw	r3,0(r2)
   81650:	1809883a 	mov	r4,r3
   81654:	00861080 	call	86108 <__extendsfdf2>
   81658:	100b883a 	mov	r5,r2
   8165c:	180d883a 	mov	r6,r3
   81660:	2809883a 	mov	r4,r5
   81664:	300b883a 	mov	r5,r6
   81668:	00821f80 	call	821f8 <exp>
   8166c:	100b883a 	mov	r5,r2
   81670:	180d883a 	mov	r6,r3
   81674:	2809883a 	mov	r4,r5
   81678:	300b883a 	mov	r5,r6
   8167c:	00862180 	call	86218 <__truncdfsf2>
   81680:	1009883a 	mov	r4,r2
   81684:	008002b4 	movhi	r2,10
   81688:	109ec404 	addi	r2,r2,31504
   8168c:	e0fffd17 	ldw	r3,-12(fp)
   81690:	18c7883a 	add	r3,r3,r3
   81694:	18c7883a 	add	r3,r3,r3
   81698:	10c5883a 	add	r2,r2,r3
   8169c:	11000015 	stw	r4,0(r2)
		sum += Softmax[i];
   816a0:	008002b4 	movhi	r2,10
   816a4:	109ec404 	addi	r2,r2,31504
   816a8:	e0fffd17 	ldw	r3,-12(fp)
   816ac:	18c7883a 	add	r3,r3,r3
   816b0:	18c7883a 	add	r3,r3,r3
   816b4:	10c5883a 	add	r2,r2,r3
   816b8:	10c00017 	ldw	r3,0(r2)
   816bc:	180b883a 	mov	r5,r3
   816c0:	e13ffe17 	ldw	r4,-8(fp)
   816c4:	0082a700 	call	82a70 <__addsf3>
   816c8:	1007883a 	mov	r3,r2
   816cc:	e0fffe15 	stw	r3,-8(fp)
		if (FC2_Image[i] > max) {
			max = FC2_Image[i];
			max_point = i;
		}
	float sum = 0.0;
	for(i = 0; i < FC2_OUT_DIM; i++) {
   816d0:	e0bffd17 	ldw	r2,-12(fp)
   816d4:	10800044 	addi	r2,r2,1
   816d8:	e0bffd15 	stw	r2,-12(fp)
   816dc:	e0bffd17 	ldw	r2,-12(fp)
   816e0:	10800290 	cmplti	r2,r2,10
   816e4:	103fd31e 	bne	r2,zero,81634 <__alt_data_end+0xfffabf04>
		Softmax[i] = exp(FC2_Image[i]);
		sum += Softmax[i];
	}
	for(i = 0; i < FC2_OUT_DIM; i++) {
   816e8:	e03ffd15 	stw	zero,-12(fp)
   816ec:	00001606 	br	81748 <Get_Answer+0x1c0>
		Softmax[i] /= sum;
   816f0:	008002b4 	movhi	r2,10
   816f4:	109ec404 	addi	r2,r2,31504
   816f8:	e0fffd17 	ldw	r3,-12(fp)
   816fc:	18c7883a 	add	r3,r3,r3
   81700:	18c7883a 	add	r3,r3,r3
   81704:	10c5883a 	add	r2,r2,r3
   81708:	10c00017 	ldw	r3,0(r2)
   8170c:	e17ffe17 	ldw	r5,-8(fp)
   81710:	1809883a 	mov	r4,r3
   81714:	0082f380 	call	82f38 <__divsf3>
   81718:	1007883a 	mov	r3,r2
   8171c:	1809883a 	mov	r4,r3
   81720:	008002b4 	movhi	r2,10
   81724:	109ec404 	addi	r2,r2,31504
   81728:	e0fffd17 	ldw	r3,-12(fp)
   8172c:	18c7883a 	add	r3,r3,r3
   81730:	18c7883a 	add	r3,r3,r3
   81734:	10c5883a 	add	r2,r2,r3
   81738:	11000015 	stw	r4,0(r2)
	float sum = 0.0;
	for(i = 0; i < FC2_OUT_DIM; i++) {
		Softmax[i] = exp(FC2_Image[i]);
		sum += Softmax[i];
	}
	for(i = 0; i < FC2_OUT_DIM; i++) {
   8173c:	e0bffd17 	ldw	r2,-12(fp)
   81740:	10800044 	addi	r2,r2,1
   81744:	e0bffd15 	stw	r2,-12(fp)
   81748:	e0bffd17 	ldw	r2,-12(fp)
   8174c:	10800290 	cmplti	r2,r2,10
   81750:	103fe71e 	bne	r2,zero,816f0 <__alt_data_end+0xfffabfc0>
		Softmax[i] /= sum;
	}
	ans = max_point;
   81754:	e0bffc17 	ldw	r2,-16(fp)
   81758:	d086f415 	stw	r2,7120(gp)

	max = -1;
   8175c:	00afe034 	movhi	r2,49024
   81760:	e0bffb15 	stw	r2,-20(fp)
	max_point = -1;
   81764:	00bfffc4 	movi	r2,-1
   81768:	e0bffc15 	stw	r2,-16(fp)
	for(i = 0; i < FC2_OUT_DIM; i++)
   8176c:	e03ffd15 	stw	zero,-12(fp)
   81770:	00001b06 	br	817e0 <Get_Answer+0x258>
		if(Softmax[i] > max && i != ans) {
   81774:	008002b4 	movhi	r2,10
   81778:	109ec404 	addi	r2,r2,31504
   8177c:	e0fffd17 	ldw	r3,-12(fp)
   81780:	18c7883a 	add	r3,r3,r3
   81784:	18c7883a 	add	r3,r3,r3
   81788:	10c5883a 	add	r2,r2,r3
   8178c:	10c00017 	ldw	r3,0(r2)
   81790:	e17ffb17 	ldw	r5,-20(fp)
   81794:	1809883a 	mov	r4,r3
   81798:	00833780 	call	83378 <__gesf2>
   8179c:	00800d0e 	bge	zero,r2,817d4 <Get_Answer+0x24c>
   817a0:	d086f417 	ldw	r2,7120(gp)
   817a4:	e0fffd17 	ldw	r3,-12(fp)
   817a8:	18800a26 	beq	r3,r2,817d4 <Get_Answer+0x24c>
			max_point = i;
   817ac:	e0bffd17 	ldw	r2,-12(fp)
   817b0:	e0bffc15 	stw	r2,-16(fp)
			max = Softmax[i];
   817b4:	008002b4 	movhi	r2,10
   817b8:	109ec404 	addi	r2,r2,31504
   817bc:	e0fffd17 	ldw	r3,-12(fp)
   817c0:	18c7883a 	add	r3,r3,r3
   817c4:	18c7883a 	add	r3,r3,r3
   817c8:	10c5883a 	add	r2,r2,r3
   817cc:	10800017 	ldw	r2,0(r2)
   817d0:	e0bffb15 	stw	r2,-20(fp)
	}
	ans = max_point;

	max = -1;
	max_point = -1;
	for(i = 0; i < FC2_OUT_DIM; i++)
   817d4:	e0bffd17 	ldw	r2,-12(fp)
   817d8:	10800044 	addi	r2,r2,1
   817dc:	e0bffd15 	stw	r2,-12(fp)
   817e0:	e0bffd17 	ldw	r2,-12(fp)
   817e4:	10800290 	cmplti	r2,r2,10
   817e8:	103fe21e 	bne	r2,zero,81774 <__alt_data_end+0xfffac044>
		if(Softmax[i] > max && i != ans) {
			max_point = i;
			max = Softmax[i];
		}
	subop = max_point;
   817ec:	e0bffc17 	ldw	r2,-16(fp)
   817f0:	d086f515 	stw	r2,7124(gp)

	printf("\nHere are the results:\n");
   817f4:	01000274 	movhi	r4,9
   817f8:	210fd704 	addi	r4,r4,16220
   817fc:	00884c00 	call	884c0 <puts>

	for(i = 0; i < FC2_OUT_DIM; i++)
   81800:	e03ffd15 	stw	zero,-12(fp)
   81804:	00003c06 	br	818f8 <Get_Answer+0x370>
		printf("Softmax[%d] = %d.%d\n", i, (int)(Softmax[i] * 100.0), ((int)(Softmax[i] * 1000.0) % 10));
   81808:	008002b4 	movhi	r2,10
   8180c:	109ec404 	addi	r2,r2,31504
   81810:	e0fffd17 	ldw	r3,-12(fp)
   81814:	18c7883a 	add	r3,r3,r3
   81818:	18c7883a 	add	r3,r3,r3
   8181c:	10c5883a 	add	r2,r2,r3
   81820:	10c00017 	ldw	r3,0(r2)
   81824:	1809883a 	mov	r4,r3
   81828:	00861080 	call	86108 <__extendsfdf2>
   8182c:	1011883a 	mov	r8,r2
   81830:	1813883a 	mov	r9,r3
   81834:	000d883a 	mov	r6,zero
   81838:	01d01674 	movhi	r7,16473
   8183c:	4009883a 	mov	r4,r8
   81840:	480b883a 	mov	r5,r9
   81844:	0084e440 	call	84e44 <__muldf3>
   81848:	1009883a 	mov	r4,r2
   8184c:	180b883a 	mov	r5,r3
   81850:	2005883a 	mov	r2,r4
   81854:	2807883a 	mov	r3,r5
   81858:	1009883a 	mov	r4,r2
   8185c:	180b883a 	mov	r5,r3
   81860:	0085fac0 	call	85fac <__fixdfsi>
   81864:	1021883a 	mov	r16,r2
   81868:	008002b4 	movhi	r2,10
   8186c:	109ec404 	addi	r2,r2,31504
   81870:	e0fffd17 	ldw	r3,-12(fp)
   81874:	18c7883a 	add	r3,r3,r3
   81878:	18c7883a 	add	r3,r3,r3
   8187c:	10c5883a 	add	r2,r2,r3
   81880:	10c00017 	ldw	r3,0(r2)
   81884:	1809883a 	mov	r4,r3
   81888:	00861080 	call	86108 <__extendsfdf2>
   8188c:	1011883a 	mov	r8,r2
   81890:	1813883a 	mov	r9,r3
   81894:	000d883a 	mov	r6,zero
   81898:	01d023f4 	movhi	r7,16527
   8189c:	39d00004 	addi	r7,r7,16384
   818a0:	4009883a 	mov	r4,r8
   818a4:	480b883a 	mov	r5,r9
   818a8:	0084e440 	call	84e44 <__muldf3>
   818ac:	1009883a 	mov	r4,r2
   818b0:	180b883a 	mov	r5,r3
   818b4:	2005883a 	mov	r2,r4
   818b8:	2807883a 	mov	r3,r5
   818bc:	1009883a 	mov	r4,r2
   818c0:	180b883a 	mov	r5,r3
   818c4:	0085fac0 	call	85fac <__fixdfsi>
   818c8:	01400284 	movi	r5,10
   818cc:	1009883a 	mov	r4,r2
   818d0:	00829180 	call	82918 <__modsi3>
   818d4:	100f883a 	mov	r7,r2
   818d8:	800d883a 	mov	r6,r16
   818dc:	e17ffd17 	ldw	r5,-12(fp)
   818e0:	01000274 	movhi	r4,9
   818e4:	210fdd04 	addi	r4,r4,16244
   818e8:	00883c40 	call	883c4 <printf>
		}
	subop = max_point;

	printf("\nHere are the results:\n");

	for(i = 0; i < FC2_OUT_DIM; i++)
   818ec:	e0bffd17 	ldw	r2,-12(fp)
   818f0:	10800044 	addi	r2,r2,1
   818f4:	e0bffd15 	stw	r2,-12(fp)
   818f8:	e0bffd17 	ldw	r2,-12(fp)
   818fc:	10800290 	cmplti	r2,r2,10
   81900:	103fc11e 	bne	r2,zero,81808 <__alt_data_end+0xfffac0d8>
		printf("Softmax[%d] = %d.%d\n", i, (int)(Softmax[i] * 100.0), ((int)(Softmax[i] * 1000.0) % 10));
}
   81904:	0001883a 	nop
   81908:	e6ffff04 	addi	sp,fp,-4
   8190c:	dfc00217 	ldw	ra,8(sp)
   81910:	df000117 	ldw	fp,4(sp)
   81914:	dc000017 	ldw	r16,0(sp)
   81918:	dec00304 	addi	sp,sp,12
   8191c:	f800283a 	ret

00081920 <Recognition>:
float sum_value[28][28], sum_n[28][28];
unsigned char recognize_flag;
unsigned int *pChar162 = LCD_0_BASE;


void Recognition() {
   81920:	defff704 	addi	sp,sp,-36
   81924:	dfc00815 	stw	ra,32(sp)
   81928:	df000715 	stw	fp,28(sp)
   8192c:	dc400615 	stw	r17,24(sp)
   81930:	dc000515 	stw	r16,20(sp)
   81934:	df000704 	addi	fp,sp,28
	int i, j;
	int tmp_i, tmp_j;



	for(i = 0; i < 28; i++){
   81938:	e03ff915 	stw	zero,-28(fp)
   8193c:	00002506 	br	819d4 <Recognition+0xb4>
		for(j = 0; j < 28; j++) {
   81940:	e03ffa15 	stw	zero,-24(fp)
   81944:	00001d06 	br	819bc <Recognition+0x9c>
			sum_value[i][j] = 0.0;
   81948:	040002f4 	movhi	r16,11
   8194c:	843d6e04 	addi	r16,r16,-2632
   81950:	e0bff917 	ldw	r2,-28(fp)
   81954:	01400704 	movi	r5,28
   81958:	1009883a 	mov	r4,r2
   8195c:	0082a480 	call	82a48 <__mulsi3>
   81960:	1007883a 	mov	r3,r2
   81964:	e0bffa17 	ldw	r2,-24(fp)
   81968:	1885883a 	add	r2,r3,r2
   8196c:	1085883a 	add	r2,r2,r2
   81970:	1085883a 	add	r2,r2,r2
   81974:	8085883a 	add	r2,r16,r2
   81978:	10000015 	stw	zero,0(r2)
			sum_n[i][j] = 0.0;
   8197c:	040002f4 	movhi	r16,11
   81980:	8404c604 	addi	r16,r16,4888
   81984:	e0bff917 	ldw	r2,-28(fp)
   81988:	01400704 	movi	r5,28
   8198c:	1009883a 	mov	r4,r2
   81990:	0082a480 	call	82a48 <__mulsi3>
   81994:	1007883a 	mov	r3,r2
   81998:	e0bffa17 	ldw	r2,-24(fp)
   8199c:	1885883a 	add	r2,r3,r2
   819a0:	1085883a 	add	r2,r2,r2
   819a4:	1085883a 	add	r2,r2,r2
   819a8:	8085883a 	add	r2,r16,r2
   819ac:	10000015 	stw	zero,0(r2)
	int tmp_i, tmp_j;



	for(i = 0; i < 28; i++){
		for(j = 0; j < 28; j++) {
   819b0:	e0bffa17 	ldw	r2,-24(fp)
   819b4:	10800044 	addi	r2,r2,1
   819b8:	e0bffa15 	stw	r2,-24(fp)
   819bc:	e0bffa17 	ldw	r2,-24(fp)
   819c0:	10800710 	cmplti	r2,r2,28
   819c4:	103fe01e 	bne	r2,zero,81948 <__alt_data_end+0xfffac218>
	int i, j;
	int tmp_i, tmp_j;



	for(i = 0; i < 28; i++){
   819c8:	e0bff917 	ldw	r2,-28(fp)
   819cc:	10800044 	addi	r2,r2,1
   819d0:	e0bff915 	stw	r2,-28(fp)
   819d4:	e0bff917 	ldw	r2,-28(fp)
   819d8:	10800710 	cmplti	r2,r2,28
   819dc:	103fd81e 	bne	r2,zero,81940 <__alt_data_end+0xfffac210>
			sum_value[i][j] = 0.0;
			sum_n[i][j] = 0.0;
		}
	}
	// Resize the digit from 64*64 to 28*28 for the CNN
	for(i = 0; i < 64; i++) {
   819e0:	e03ff915 	stw	zero,-28(fp)
   819e4:	00008f06 	br	81c24 <Recognition+0x304>
		for(j = 0; j < 64; j++) {
   819e8:	e03ffa15 	stw	zero,-24(fp)
   819ec:	00008706 	br	81c0c <Recognition+0x2ec>
			tmp_i = (int)((float)i * 28.0 / 64.0);
   819f0:	e13ff917 	ldw	r4,-28(fp)
   819f4:	00838d40 	call	838d4 <__floatsisf>
   819f8:	1007883a 	mov	r3,r2
   819fc:	1809883a 	mov	r4,r3
   81a00:	00861080 	call	86108 <__extendsfdf2>
   81a04:	1011883a 	mov	r8,r2
   81a08:	1813883a 	mov	r9,r3
   81a0c:	000d883a 	mov	r6,zero
   81a10:	01d00f34 	movhi	r7,16444
   81a14:	4009883a 	mov	r4,r8
   81a18:	480b883a 	mov	r5,r9
   81a1c:	0084e440 	call	84e44 <__muldf3>
   81a20:	1009883a 	mov	r4,r2
   81a24:	180b883a 	mov	r5,r3
   81a28:	2005883a 	mov	r2,r4
   81a2c:	2807883a 	mov	r3,r5
   81a30:	000d883a 	mov	r6,zero
   81a34:	01d01434 	movhi	r7,16464
   81a38:	1009883a 	mov	r4,r2
   81a3c:	180b883a 	mov	r5,r3
   81a40:	00842a40 	call	842a4 <__divdf3>
   81a44:	1009883a 	mov	r4,r2
   81a48:	180b883a 	mov	r5,r3
   81a4c:	2005883a 	mov	r2,r4
   81a50:	2807883a 	mov	r3,r5
   81a54:	1009883a 	mov	r4,r2
   81a58:	180b883a 	mov	r5,r3
   81a5c:	0085fac0 	call	85fac <__fixdfsi>
   81a60:	e0bffb15 	stw	r2,-20(fp)
			tmp_j = (int)((float)j * 28.0 / 64.0);
   81a64:	e13ffa17 	ldw	r4,-24(fp)
   81a68:	00838d40 	call	838d4 <__floatsisf>
   81a6c:	1007883a 	mov	r3,r2
   81a70:	1809883a 	mov	r4,r3
   81a74:	00861080 	call	86108 <__extendsfdf2>
   81a78:	1011883a 	mov	r8,r2
   81a7c:	1813883a 	mov	r9,r3
   81a80:	000d883a 	mov	r6,zero
   81a84:	01d00f34 	movhi	r7,16444
   81a88:	4009883a 	mov	r4,r8
   81a8c:	480b883a 	mov	r5,r9
   81a90:	0084e440 	call	84e44 <__muldf3>
   81a94:	1009883a 	mov	r4,r2
   81a98:	180b883a 	mov	r5,r3
   81a9c:	2005883a 	mov	r2,r4
   81aa0:	2807883a 	mov	r3,r5
   81aa4:	000d883a 	mov	r6,zero
   81aa8:	01d01434 	movhi	r7,16464
   81aac:	1009883a 	mov	r4,r2
   81ab0:	180b883a 	mov	r5,r3
   81ab4:	00842a40 	call	842a4 <__divdf3>
   81ab8:	1009883a 	mov	r4,r2
   81abc:	180b883a 	mov	r5,r3
   81ac0:	2005883a 	mov	r2,r4
   81ac4:	2807883a 	mov	r3,r5
   81ac8:	1009883a 	mov	r4,r2
   81acc:	180b883a 	mov	r5,r3
   81ad0:	0085fac0 	call	85fac <__fixdfsi>
   81ad4:	e0bffc15 	stw	r2,-16(fp)
			sum_value[tmp_i][tmp_j] += (capturedImage[i][j]);
   81ad8:	040002f4 	movhi	r16,11
   81adc:	843d6e04 	addi	r16,r16,-2632
   81ae0:	e0bffb17 	ldw	r2,-20(fp)
   81ae4:	01400704 	movi	r5,28
   81ae8:	1009883a 	mov	r4,r2
   81aec:	0082a480 	call	82a48 <__mulsi3>
   81af0:	1007883a 	mov	r3,r2
   81af4:	e0bffc17 	ldw	r2,-16(fp)
   81af8:	1885883a 	add	r2,r3,r2
   81afc:	1085883a 	add	r2,r2,r2
   81b00:	1085883a 	add	r2,r2,r2
   81b04:	8085883a 	add	r2,r16,r2
   81b08:	14000017 	ldw	r16,0(r2)
   81b0c:	008002f4 	movhi	r2,11
   81b10:	1080c604 	addi	r2,r2,792
   81b14:	e0fff917 	ldw	r3,-28(fp)
   81b18:	180691ba 	slli	r3,r3,6
   81b1c:	10c7883a 	add	r3,r2,r3
   81b20:	e0bffa17 	ldw	r2,-24(fp)
   81b24:	1885883a 	add	r2,r3,r2
   81b28:	10800003 	ldbu	r2,0(r2)
   81b2c:	10803fcc 	andi	r2,r2,255
   81b30:	1009883a 	mov	r4,r2
   81b34:	00838d40 	call	838d4 <__floatsisf>
   81b38:	1007883a 	mov	r3,r2
   81b3c:	180b883a 	mov	r5,r3
   81b40:	8009883a 	mov	r4,r16
   81b44:	0082a700 	call	82a70 <__addsf3>
   81b48:	1007883a 	mov	r3,r2
   81b4c:	1823883a 	mov	r17,r3
   81b50:	040002f4 	movhi	r16,11
   81b54:	843d6e04 	addi	r16,r16,-2632
   81b58:	e0bffb17 	ldw	r2,-20(fp)
   81b5c:	01400704 	movi	r5,28
   81b60:	1009883a 	mov	r4,r2
   81b64:	0082a480 	call	82a48 <__mulsi3>
   81b68:	1007883a 	mov	r3,r2
   81b6c:	e0bffc17 	ldw	r2,-16(fp)
   81b70:	1885883a 	add	r2,r3,r2
   81b74:	1085883a 	add	r2,r2,r2
   81b78:	1085883a 	add	r2,r2,r2
   81b7c:	8085883a 	add	r2,r16,r2
   81b80:	14400015 	stw	r17,0(r2)
			sum_n[tmp_i][tmp_j] += 1;
   81b84:	040002f4 	movhi	r16,11
   81b88:	8404c604 	addi	r16,r16,4888
   81b8c:	e0bffb17 	ldw	r2,-20(fp)
   81b90:	01400704 	movi	r5,28
   81b94:	1009883a 	mov	r4,r2
   81b98:	0082a480 	call	82a48 <__mulsi3>
   81b9c:	1007883a 	mov	r3,r2
   81ba0:	e0bffc17 	ldw	r2,-16(fp)
   81ba4:	1885883a 	add	r2,r3,r2
   81ba8:	1085883a 	add	r2,r2,r2
   81bac:	1085883a 	add	r2,r2,r2
   81bb0:	8085883a 	add	r2,r16,r2
   81bb4:	10c00017 	ldw	r3,0(r2)
   81bb8:	014fe034 	movhi	r5,16256
   81bbc:	1809883a 	mov	r4,r3
   81bc0:	0082a700 	call	82a70 <__addsf3>
   81bc4:	1007883a 	mov	r3,r2
   81bc8:	1823883a 	mov	r17,r3
   81bcc:	040002f4 	movhi	r16,11
   81bd0:	8404c604 	addi	r16,r16,4888
   81bd4:	e0bffb17 	ldw	r2,-20(fp)
   81bd8:	01400704 	movi	r5,28
   81bdc:	1009883a 	mov	r4,r2
   81be0:	0082a480 	call	82a48 <__mulsi3>
   81be4:	1007883a 	mov	r3,r2
   81be8:	e0bffc17 	ldw	r2,-16(fp)
   81bec:	1885883a 	add	r2,r3,r2
   81bf0:	1085883a 	add	r2,r2,r2
   81bf4:	1085883a 	add	r2,r2,r2
   81bf8:	8085883a 	add	r2,r16,r2
   81bfc:	14400015 	stw	r17,0(r2)
			sum_n[i][j] = 0.0;
		}
	}
	// Resize the digit from 64*64 to 28*28 for the CNN
	for(i = 0; i < 64; i++) {
		for(j = 0; j < 64; j++) {
   81c00:	e0bffa17 	ldw	r2,-24(fp)
   81c04:	10800044 	addi	r2,r2,1
   81c08:	e0bffa15 	stw	r2,-24(fp)
   81c0c:	e0bffa17 	ldw	r2,-24(fp)
   81c10:	10801010 	cmplti	r2,r2,64
   81c14:	103f761e 	bne	r2,zero,819f0 <__alt_data_end+0xfffac2c0>
			sum_value[i][j] = 0.0;
			sum_n[i][j] = 0.0;
		}
	}
	// Resize the digit from 64*64 to 28*28 for the CNN
	for(i = 0; i < 64; i++) {
   81c18:	e0bff917 	ldw	r2,-28(fp)
   81c1c:	10800044 	addi	r2,r2,1
   81c20:	e0bff915 	stw	r2,-28(fp)
   81c24:	e0bff917 	ldw	r2,-28(fp)
   81c28:	10801010 	cmplti	r2,r2,64
   81c2c:	103f6e1e 	bne	r2,zero,819e8 <__alt_data_end+0xfffac2b8>
			//printf("sum_value[%d] = %d.%d | CI = %d\n", tmp_i, (int)(sum_value[tmp_i][tmp_j] * 1.0), ((int)(sum_value[tmp_i][tmp_j] * 1000.0) % 10), (int)capturedImage[i][j]);
		}
		//printf(";\n");
	}

	for(i = 0; i < 28; i++){
   81c30:	e03ff915 	stw	zero,-28(fp)
   81c34:	00005206 	br	81d80 <Recognition+0x460>
		for(j = 0; j < 28; j++){
   81c38:	e03ffa15 	stw	zero,-24(fp)
   81c3c:	00004a06 	br	81d68 <Recognition+0x448>
			Input_Image[i][j] = 1.0 - sum_value[i][j] / (float)sum_n[i][j] / 255.0;
   81c40:	040002f4 	movhi	r16,11
   81c44:	843d6e04 	addi	r16,r16,-2632
   81c48:	e0bff917 	ldw	r2,-28(fp)
   81c4c:	01400704 	movi	r5,28
   81c50:	1009883a 	mov	r4,r2
   81c54:	0082a480 	call	82a48 <__mulsi3>
   81c58:	1007883a 	mov	r3,r2
   81c5c:	e0bffa17 	ldw	r2,-24(fp)
   81c60:	1885883a 	add	r2,r3,r2
   81c64:	1085883a 	add	r2,r2,r2
   81c68:	1085883a 	add	r2,r2,r2
   81c6c:	8085883a 	add	r2,r16,r2
   81c70:	14400017 	ldw	r17,0(r2)
   81c74:	040002f4 	movhi	r16,11
   81c78:	8404c604 	addi	r16,r16,4888
   81c7c:	e0bff917 	ldw	r2,-28(fp)
   81c80:	01400704 	movi	r5,28
   81c84:	1009883a 	mov	r4,r2
   81c88:	0082a480 	call	82a48 <__mulsi3>
   81c8c:	1007883a 	mov	r3,r2
   81c90:	e0bffa17 	ldw	r2,-24(fp)
   81c94:	1885883a 	add	r2,r3,r2
   81c98:	1085883a 	add	r2,r2,r2
   81c9c:	1085883a 	add	r2,r2,r2
   81ca0:	8085883a 	add	r2,r16,r2
   81ca4:	10c00017 	ldw	r3,0(r2)
   81ca8:	180b883a 	mov	r5,r3
   81cac:	8809883a 	mov	r4,r17
   81cb0:	0082f380 	call	82f38 <__divsf3>
   81cb4:	1007883a 	mov	r3,r2
   81cb8:	1805883a 	mov	r2,r3
   81cbc:	1009883a 	mov	r4,r2
   81cc0:	00861080 	call	86108 <__extendsfdf2>
   81cc4:	1011883a 	mov	r8,r2
   81cc8:	1813883a 	mov	r9,r3
   81ccc:	000d883a 	mov	r6,zero
   81cd0:	01d01c34 	movhi	r7,16496
   81cd4:	39f80004 	addi	r7,r7,-8192
   81cd8:	4009883a 	mov	r4,r8
   81cdc:	480b883a 	mov	r5,r9
   81ce0:	00842a40 	call	842a4 <__divdf3>
   81ce4:	1009883a 	mov	r4,r2
   81ce8:	180b883a 	mov	r5,r3
   81cec:	2005883a 	mov	r2,r4
   81cf0:	2807883a 	mov	r3,r5
   81cf4:	100d883a 	mov	r6,r2
   81cf8:	180f883a 	mov	r7,r3
   81cfc:	0009883a 	mov	r4,zero
   81d00:	014ffc34 	movhi	r5,16368
   81d04:	00856b00 	call	856b0 <__subdf3>
   81d08:	1009883a 	mov	r4,r2
   81d0c:	180b883a 	mov	r5,r3
   81d10:	2005883a 	mov	r2,r4
   81d14:	2807883a 	mov	r3,r5
   81d18:	1009883a 	mov	r4,r2
   81d1c:	180b883a 	mov	r5,r3
   81d20:	00862180 	call	86218 <__truncdfsf2>
   81d24:	1023883a 	mov	r17,r2
   81d28:	040002f4 	movhi	r16,11
   81d2c:	8407e004 	addi	r16,r16,8064
   81d30:	e0bff917 	ldw	r2,-28(fp)
   81d34:	01400704 	movi	r5,28
   81d38:	1009883a 	mov	r4,r2
   81d3c:	0082a480 	call	82a48 <__mulsi3>
   81d40:	1007883a 	mov	r3,r2
   81d44:	e0bffa17 	ldw	r2,-24(fp)
   81d48:	1885883a 	add	r2,r3,r2
   81d4c:	1085883a 	add	r2,r2,r2
   81d50:	1085883a 	add	r2,r2,r2
   81d54:	8085883a 	add	r2,r16,r2
   81d58:	14400015 	stw	r17,0(r2)
		}
		//printf(";\n");
	}

	for(i = 0; i < 28; i++){
		for(j = 0; j < 28; j++){
   81d5c:	e0bffa17 	ldw	r2,-24(fp)
   81d60:	10800044 	addi	r2,r2,1
   81d64:	e0bffa15 	stw	r2,-24(fp)
   81d68:	e0bffa17 	ldw	r2,-24(fp)
   81d6c:	10800710 	cmplti	r2,r2,28
   81d70:	103fb31e 	bne	r2,zero,81c40 <__alt_data_end+0xfffac510>
			//printf("sum_value[%d] = %d.%d | CI = %d\n", tmp_i, (int)(sum_value[tmp_i][tmp_j] * 1.0), ((int)(sum_value[tmp_i][tmp_j] * 1000.0) % 10), (int)capturedImage[i][j]);
		}
		//printf(";\n");
	}

	for(i = 0; i < 28; i++){
   81d74:	e0bff917 	ldw	r2,-28(fp)
   81d78:	10800044 	addi	r2,r2,1
   81d7c:	e0bff915 	stw	r2,-28(fp)
   81d80:	e0bff917 	ldw	r2,-28(fp)
   81d84:	10800710 	cmplti	r2,r2,28
   81d88:	103fab1e 	bne	r2,zero,81c38 <__alt_data_end+0xfffac508>
			//Input_Image[i][j] = sum_value[i][j] / (float)sum_n[i][j] / 255;
			//printf("%d.%d,", (int)(Input_Image[i][j] * 1.0), ((int)(Input_Image[i][j] * 1000.0) % 10));
		}
		//printf(";\n");
	}
	for(j = 0; j < 28; j++)
   81d8c:	e03ffa15 	stw	zero,-24(fp)
   81d90:	00000a06 	br	81dbc <Recognition+0x49c>
		Input_Image[0][j] = 0.0;
   81d94:	008002f4 	movhi	r2,11
   81d98:	1087e004 	addi	r2,r2,8064
   81d9c:	e0fffa17 	ldw	r3,-24(fp)
   81da0:	18c7883a 	add	r3,r3,r3
   81da4:	18c7883a 	add	r3,r3,r3
   81da8:	10c5883a 	add	r2,r2,r3
   81dac:	10000015 	stw	zero,0(r2)
			//Input_Image[i][j] = sum_value[i][j] / (float)sum_n[i][j] / 255;
			//printf("%d.%d,", (int)(Input_Image[i][j] * 1.0), ((int)(Input_Image[i][j] * 1000.0) % 10));
		}
		//printf(";\n");
	}
	for(j = 0; j < 28; j++)
   81db0:	e0bffa17 	ldw	r2,-24(fp)
   81db4:	10800044 	addi	r2,r2,1
   81db8:	e0bffa15 	stw	r2,-24(fp)
   81dbc:	e0bffa17 	ldw	r2,-24(fp)
   81dc0:	10800710 	cmplti	r2,r2,28
   81dc4:	103ff31e 	bne	r2,zero,81d94 <__alt_data_end+0xfffac664>
		Input_Image[0][j] = 0.0;

	// Start calculating
	CNN_MNIST_recognition();
   81dc8:	00807080 	call	80708 <CNN_MNIST_recognition>



	// Display the reliability of the two most possible numbers using the result of softmax
	int tmp2;
	tmp2 = (int)(Softmax[ans] * 100.0);
   81dcc:	d0c6f417 	ldw	r3,7120(gp)
   81dd0:	008002b4 	movhi	r2,10
   81dd4:	109ec404 	addi	r2,r2,31504
   81dd8:	18c7883a 	add	r3,r3,r3
   81ddc:	18c7883a 	add	r3,r3,r3
   81de0:	10c5883a 	add	r2,r2,r3
   81de4:	10c00017 	ldw	r3,0(r2)
   81de8:	1809883a 	mov	r4,r3
   81dec:	00861080 	call	86108 <__extendsfdf2>
   81df0:	1011883a 	mov	r8,r2
   81df4:	1813883a 	mov	r9,r3
   81df8:	000d883a 	mov	r6,zero
   81dfc:	01d01674 	movhi	r7,16473
   81e00:	4009883a 	mov	r4,r8
   81e04:	480b883a 	mov	r5,r9
   81e08:	0084e440 	call	84e44 <__muldf3>
   81e0c:	1009883a 	mov	r4,r2
   81e10:	180b883a 	mov	r5,r3
   81e14:	2005883a 	mov	r2,r4
   81e18:	2807883a 	mov	r3,r5
   81e1c:	1009883a 	mov	r4,r2
   81e20:	180b883a 	mov	r5,r3
   81e24:	0085fac0 	call	85fac <__fixdfsi>
   81e28:	e0bffd15 	stw	r2,-12(fp)
	str_pro[0] = 48 + ans;
   81e2c:	d086f417 	ldw	r2,7120(gp)
   81e30:	10800c04 	addi	r2,r2,48
   81e34:	1007883a 	mov	r3,r2
   81e38:	008002b4 	movhi	r2,10
   81e3c:	10b0fb04 	addi	r2,r2,-15380
   81e40:	10c00005 	stb	r3,0(r2)
	str_pro[2] = 48 + (tmp2 / 100);
   81e44:	e0bffd17 	ldw	r2,-12(fp)
   81e48:	01401904 	movi	r5,100
   81e4c:	1009883a 	mov	r4,r2
   81e50:	00828940 	call	82894 <__divsi3>
   81e54:	10800c04 	addi	r2,r2,48
   81e58:	1007883a 	mov	r3,r2
   81e5c:	008002b4 	movhi	r2,10
   81e60:	10b0fb04 	addi	r2,r2,-15380
   81e64:	10c00085 	stb	r3,2(r2)
	str_pro[3] = 48 + (tmp2 / 10 % 10);
   81e68:	e0bffd17 	ldw	r2,-12(fp)
   81e6c:	01400284 	movi	r5,10
   81e70:	1009883a 	mov	r4,r2
   81e74:	00828940 	call	82894 <__divsi3>
   81e78:	01400284 	movi	r5,10
   81e7c:	1009883a 	mov	r4,r2
   81e80:	00829180 	call	82918 <__modsi3>
   81e84:	10800c04 	addi	r2,r2,48
   81e88:	1007883a 	mov	r3,r2
   81e8c:	008002b4 	movhi	r2,10
   81e90:	10b0fb04 	addi	r2,r2,-15380
   81e94:	10c000c5 	stb	r3,3(r2)
	str_pro[4] = 48 + (tmp2 % 10);
   81e98:	e0bffd17 	ldw	r2,-12(fp)
   81e9c:	01400284 	movi	r5,10
   81ea0:	1009883a 	mov	r4,r2
   81ea4:	00829180 	call	82918 <__modsi3>
   81ea8:	10800c04 	addi	r2,r2,48
   81eac:	1007883a 	mov	r3,r2
   81eb0:	008002b4 	movhi	r2,10
   81eb4:	10b0fb04 	addi	r2,r2,-15380
   81eb8:	10c00105 	stb	r3,4(r2)

	tmp2 = (int)(Softmax[subop] * 100.0);
   81ebc:	d0c6f517 	ldw	r3,7124(gp)
   81ec0:	008002b4 	movhi	r2,10
   81ec4:	109ec404 	addi	r2,r2,31504
   81ec8:	18c7883a 	add	r3,r3,r3
   81ecc:	18c7883a 	add	r3,r3,r3
   81ed0:	10c5883a 	add	r2,r2,r3
   81ed4:	10c00017 	ldw	r3,0(r2)
   81ed8:	1809883a 	mov	r4,r3
   81edc:	00861080 	call	86108 <__extendsfdf2>
   81ee0:	1011883a 	mov	r8,r2
   81ee4:	1813883a 	mov	r9,r3
   81ee8:	000d883a 	mov	r6,zero
   81eec:	01d01674 	movhi	r7,16473
   81ef0:	4009883a 	mov	r4,r8
   81ef4:	480b883a 	mov	r5,r9
   81ef8:	0084e440 	call	84e44 <__muldf3>
   81efc:	1009883a 	mov	r4,r2
   81f00:	180b883a 	mov	r5,r3
   81f04:	2005883a 	mov	r2,r4
   81f08:	2807883a 	mov	r3,r5
   81f0c:	1009883a 	mov	r4,r2
   81f10:	180b883a 	mov	r5,r3
   81f14:	0085fac0 	call	85fac <__fixdfsi>
   81f18:	e0bffd15 	stw	r2,-12(fp)
	str_pro[7] = 48 + subop;
   81f1c:	d086f517 	ldw	r2,7124(gp)
   81f20:	10800c04 	addi	r2,r2,48
   81f24:	1007883a 	mov	r3,r2
   81f28:	008002b4 	movhi	r2,10
   81f2c:	10b0fb04 	addi	r2,r2,-15380
   81f30:	10c001c5 	stb	r3,7(r2)
	str_pro[9] = 48 + (tmp2 / 100);
   81f34:	e0bffd17 	ldw	r2,-12(fp)
   81f38:	01401904 	movi	r5,100
   81f3c:	1009883a 	mov	r4,r2
   81f40:	00828940 	call	82894 <__divsi3>
   81f44:	10800c04 	addi	r2,r2,48
   81f48:	1007883a 	mov	r3,r2
   81f4c:	008002b4 	movhi	r2,10
   81f50:	10b0fb04 	addi	r2,r2,-15380
   81f54:	10c00245 	stb	r3,9(r2)
	str_pro[10] = 48 + (tmp2 / 10 % 10);
   81f58:	e0bffd17 	ldw	r2,-12(fp)
   81f5c:	01400284 	movi	r5,10
   81f60:	1009883a 	mov	r4,r2
   81f64:	00828940 	call	82894 <__divsi3>
   81f68:	01400284 	movi	r5,10
   81f6c:	1009883a 	mov	r4,r2
   81f70:	00829180 	call	82918 <__modsi3>
   81f74:	10800c04 	addi	r2,r2,48
   81f78:	1007883a 	mov	r3,r2
   81f7c:	008002b4 	movhi	r2,10
   81f80:	10b0fb04 	addi	r2,r2,-15380
   81f84:	10c00285 	stb	r3,10(r2)
	str_pro[11] = 48 + (tmp2 % 10);
   81f88:	e0bffd17 	ldw	r2,-12(fp)
   81f8c:	01400284 	movi	r5,10
   81f90:	1009883a 	mov	r4,r2
   81f94:	00829180 	call	82918 <__modsi3>
   81f98:	10800c04 	addi	r2,r2,48
   81f9c:	1007883a 	mov	r3,r2
   81fa0:	008002b4 	movhi	r2,10
   81fa4:	10b0fb04 	addi	r2,r2,-15380
   81fa8:	10c002c5 	stb	r3,11(r2)
	//LCD_Disp(2, 0, str_pro, 13);

	// hahaha
	if((int)(Softmax[ans] * 100) < 65) {
   81fac:	d0c6f417 	ldw	r3,7120(gp)
   81fb0:	008002b4 	movhi	r2,10
   81fb4:	109ec404 	addi	r2,r2,31504
   81fb8:	18c7883a 	add	r3,r3,r3
   81fbc:	18c7883a 	add	r3,r3,r3
   81fc0:	10c5883a 	add	r2,r2,r3
   81fc4:	10c00017 	ldw	r3,0(r2)
   81fc8:	0150b234 	movhi	r5,17096
   81fcc:	1809883a 	mov	r4,r3
   81fd0:	00834340 	call	83434 <__mulsf3>
   81fd4:	1007883a 	mov	r3,r2
   81fd8:	1805883a 	mov	r2,r3
   81fdc:	1009883a 	mov	r4,r2
   81fe0:	00838640 	call	83864 <__fixsfsi>
		//LCD_Disp(2, 0, "Duo Lao A      ", 15);
		//*(pUser_SEG8) = 0xffff0000;
	}

	// When recognizing work is just finished, only 'clear screen' button is enabled.
	recognize_flag = 1;
   81fe4:	00800044 	movi	r2,1
   81fe8:	d086f605 	stb	r2,7128(gp)
}
   81fec:	0001883a 	nop
   81ff0:	e6fffe04 	addi	sp,fp,-8
   81ff4:	dfc00317 	ldw	ra,12(sp)
   81ff8:	df000217 	ldw	fp,8(sp)
   81ffc:	dc400117 	ldw	r17,4(sp)
   82000:	dc000017 	ldw	r16,0(sp)
   82004:	dec00404 	addi	sp,sp,16
   82008:	f800283a 	ret

0008200c <main>:

int main() {
   8200c:	defff404 	addi	sp,sp,-48
   82010:	dfc00b15 	stw	ra,44(sp)
   82014:	df000a15 	stw	fp,40(sp)
   82018:	df000a04 	addi	fp,sp,40
	printf("Welcome to MNIST classification. Turn on SW[2] to start\n(Leave ON to repeat // Turn OFF otherwise)\n");
   8201c:	01000274 	movhi	r4,9
   82020:	210fe304 	addi	r4,r4,16268
   82024:	00884c00 	call	884c0 <puts>
	int i, j, sw, count=0;
   82028:	e03ff815 	stw	zero,-32(fp)
	unsigned char pixel;

	FILE *fp;
	char s[] = "Hello\nWorld!";
   8202c:	00801204 	movi	r2,72
   82030:	e0bffc45 	stb	r2,-15(fp)
   82034:	00801944 	movi	r2,101
   82038:	e0bffc85 	stb	r2,-14(fp)
   8203c:	00801b04 	movi	r2,108
   82040:	e0bffcc5 	stb	r2,-13(fp)
   82044:	00801b04 	movi	r2,108
   82048:	e0bffd05 	stb	r2,-12(fp)
   8204c:	00801bc4 	movi	r2,111
   82050:	e0bffd45 	stb	r2,-11(fp)
   82054:	00800284 	movi	r2,10
   82058:	e0bffd85 	stb	r2,-10(fp)
   8205c:	008015c4 	movi	r2,87
   82060:	e0bffdc5 	stb	r2,-9(fp)
   82064:	00801bc4 	movi	r2,111
   82068:	e0bffe05 	stb	r2,-8(fp)
   8206c:	00801c84 	movi	r2,114
   82070:	e0bffe45 	stb	r2,-7(fp)
   82074:	00801b04 	movi	r2,108
   82078:	e0bffe85 	stb	r2,-6(fp)
   8207c:	00801904 	movi	r2,100
   82080:	e0bffec5 	stb	r2,-5(fp)
   82084:	00800844 	movi	r2,33
   82088:	e0bfff05 	stb	r2,-4(fp)
   8208c:	e03fff45 	stb	zero,-3(fp)
	alt_up_character_lcd_dev * char_lcd_dev;
	char_lcd_dev = alt_up_character_lcd_open_dev ("/dev/lcd_0");
   82090:	01000274 	movhi	r4,9
   82094:	210ffc04 	addi	r4,r4,16368
   82098:	0092bf40 	call	92bf4 <alt_up_character_lcd_open_dev>
   8209c:	e0bff915 	stw	r2,-28(fp)


	while(1) {

		sw = IORD_ALTERA_AVALON_PIO_DATA(SWITCH_BASE);
   820a0:	00800434 	movhi	r2,16
   820a4:	10840004 	addi	r2,r2,4096
   820a8:	10800037 	ldwio	r2,0(r2)
   820ac:	e0bffa15 	stw	r2,-24(fp)

		if (sw==4){
   820b0:	e0bffa17 	ldw	r2,-24(fp)
   820b4:	10800118 	cmpnei	r2,r2,4
   820b8:	103ff91e 	bne	r2,zero,820a0 <__alt_data_end+0xfffac970>
			fp = fopen(LCD_0_NAME, "w");
   820bc:	01400274 	movhi	r5,9
   820c0:	294fff04 	addi	r5,r5,16380
   820c4:	01000274 	movhi	r4,9
   820c8:	210ffc04 	addi	r4,r4,16368
   820cc:	0086c840 	call	86c84 <fopen>
   820d0:	e0bffb15 	stw	r2,-20(fp)
			for(i =0; i < 64; i++)
   820d4:	e03ff615 	stw	zero,-40(fp)
   820d8:	00001f06 	br	82158 <main+0x14c>
			  {
				  for(j=0; j < 64; j++)
   820dc:	e03ff715 	stw	zero,-36(fp)
   820e0:	00001706 	br	82140 <main+0x134>
				  {
					  IOWR_ALTERA_AVALON_PIO_DATA(READ_ADDRESS_BASE, count & 0xFFFFFFFFFFFF);
   820e4:	00800434 	movhi	r2,16
   820e8:	10840404 	addi	r2,r2,4112
   820ec:	e0fff817 	ldw	r3,-32(fp)
   820f0:	10c00035 	stwio	r3,0(r2)

					  pixel = IORD_ALTERA_AVALON_PIO_DATA(PIXEL_BASE);
   820f4:	00800434 	movhi	r2,16
   820f8:	10840804 	addi	r2,r2,4128
   820fc:	10800037 	ldwio	r2,0(r2)
   82100:	e0bffc05 	stb	r2,-16(fp)

					  capturedImage[i][j]= pixel;
   82104:	008002f4 	movhi	r2,11
   82108:	1080c604 	addi	r2,r2,792
   8210c:	e0fff617 	ldw	r3,-40(fp)
   82110:	180691ba 	slli	r3,r3,6
   82114:	10c7883a 	add	r3,r2,r3
   82118:	e0bff717 	ldw	r2,-36(fp)
   8211c:	1885883a 	add	r2,r3,r2
   82120:	e0fffc03 	ldbu	r3,-16(fp)
   82124:	10c00005 	stb	r3,0(r2)

					  count++;
   82128:	e0bff817 	ldw	r2,-32(fp)
   8212c:	10800044 	addi	r2,r2,1
   82130:	e0bff815 	stw	r2,-32(fp)

		if (sw==4){
			fp = fopen(LCD_0_NAME, "w");
			for(i =0; i < 64; i++)
			  {
				  for(j=0; j < 64; j++)
   82134:	e0bff717 	ldw	r2,-36(fp)
   82138:	10800044 	addi	r2,r2,1
   8213c:	e0bff715 	stw	r2,-36(fp)
   82140:	e0bff717 	ldw	r2,-36(fp)
   82144:	10801010 	cmplti	r2,r2,64
   82148:	103fe61e 	bne	r2,zero,820e4 <__alt_data_end+0xfffac9b4>

		sw = IORD_ALTERA_AVALON_PIO_DATA(SWITCH_BASE);

		if (sw==4){
			fp = fopen(LCD_0_NAME, "w");
			for(i =0; i < 64; i++)
   8214c:	e0bff617 	ldw	r2,-40(fp)
   82150:	10800044 	addi	r2,r2,1
   82154:	e0bff615 	stw	r2,-40(fp)
   82158:	e0bff617 	ldw	r2,-40(fp)
   8215c:	10801010 	cmplti	r2,r2,64
   82160:	103fde1e 	bne	r2,zero,820dc <__alt_data_end+0xfffac9ac>
					  capturedImage[i][j]= pixel;

					  count++;
				  }
			  }
			printf("\nStarting Recognition: Please standby...\n");
   82164:	01000274 	movhi	r4,9
   82168:	21100004 	addi	r4,r4,16384
   8216c:	00884c00 	call	884c0 <puts>
			Recognition();
   82170:	00819200 	call	81920 <Recognition>

			if(fp){
   82174:	e0bffb17 	ldw	r2,-20(fp)
   82178:	10001626 	beq	r2,zero,821d4 <main+0x1c8>
				//fwrite("", strlen(""), 1, fp);
				str_ans[8] = 48 + ans;
   8217c:	d086f417 	ldw	r2,7120(gp)
   82180:	10800c04 	addi	r2,r2,48
   82184:	1007883a 	mov	r3,r2
   82188:	008002b4 	movhi	r2,10
   8218c:	10b0f804 	addi	r2,r2,-15392
   82190:	10c00205 	stb	r3,8(r2)
				fwrite(str_ans, strlen(str_ans), 1, fp);
   82194:	010002b4 	movhi	r4,10
   82198:	2130f804 	addi	r4,r4,-15392
   8219c:	00888540 	call	88854 <strlen>
   821a0:	e1fffb17 	ldw	r7,-20(fp)
   821a4:	01800044 	movi	r6,1
   821a8:	100b883a 	mov	r5,r2
   821ac:	010002b4 	movhi	r4,10
   821b0:	2130f804 	addi	r4,r4,-15392
   821b4:	00878100 	call	87810 <fwrite>
				fclose(fp);
   821b8:	e13ffb17 	ldw	r4,-20(fp)
   821bc:	00865240 	call	86524 <fclose>
				alt_up_character_lcd_set_cursor_pos(char_lcd_dev, 0, 0);
   821c0:	000d883a 	mov	r6,zero
   821c4:	000b883a 	mov	r5,zero
   821c8:	e13ff917 	ldw	r4,-28(fp)
   821cc:	0092d740 	call	92d74 <alt_up_character_lcd_set_cursor_pos>
   821d0:	00000306 	br	821e0 <main+0x1d4>
			}
			else
				printf("File could not be open\n");
   821d4:	01000274 	movhi	r4,9
   821d8:	21100b04 	addi	r4,r4,16428
   821dc:	00884c00 	call	884c0 <puts>
			printf("Answer = %d\n", ans);
   821e0:	d086f417 	ldw	r2,7120(gp)
   821e4:	100b883a 	mov	r5,r2
   821e8:	01000274 	movhi	r4,9
   821ec:	21101104 	addi	r4,r4,16452
   821f0:	00883c40 	call	883c4 <printf>
		  }

	}
   821f4:	003faa06 	br	820a0 <__alt_data_end+0xfffac970>

000821f8 <exp>:
   821f8:	defff104 	addi	sp,sp,-60
   821fc:	dd000d15 	stw	r20,52(sp)
   82200:	050002b4 	movhi	r20,10
   82204:	dcc00c15 	stw	r19,48(sp)
   82208:	dc800b15 	stw	r18,44(sp)
   8220c:	dc400a15 	stw	r17,40(sp)
   82210:	dc000915 	stw	r16,36(sp)
   82214:	dfc00e15 	stw	ra,56(sp)
   82218:	a537b604 	addi	r20,r20,-8488
   8221c:	2027883a 	mov	r19,r4
   82220:	2825883a 	mov	r18,r5
   82224:	00823880 	call	82388 <__ieee754_exp>
   82228:	1821883a 	mov	r16,r3
   8222c:	a0c00017 	ldw	r3,0(r20)
   82230:	1023883a 	mov	r17,r2
   82234:	00bfffc4 	movi	r2,-1
   82238:	18802e26 	beq	r3,r2,822f4 <exp+0xfc>
   8223c:	9809883a 	mov	r4,r19
   82240:	900b883a 	mov	r5,r18
   82244:	00828700 	call	82870 <finite>
   82248:	10002a26 	beq	r2,zero,822f4 <exp+0xfc>
   8224c:	01bfbeb4 	movhi	r6,65274
   82250:	01d021b4 	movhi	r7,16518
   82254:	318e7bc4 	addi	r6,r6,14831
   82258:	39cb9084 	addi	r7,r7,11842
   8225c:	9809883a 	mov	r4,r19
   82260:	900b883a 	mov	r5,r18
   82264:	0084c740 	call	84c74 <__gedf2>
   82268:	00802c16 	blt	zero,r2,8231c <exp+0x124>
   8226c:	01b54b74 	movhi	r6,54573
   82270:	01f021f4 	movhi	r7,49287
   82274:	318c1444 	addi	r6,r6,12369
   82278:	39d24404 	addi	r7,r7,18704
   8227c:	9809883a 	mov	r4,r19
   82280:	900b883a 	mov	r5,r18
   82284:	0084d500 	call	84d50 <__ledf2>
   82288:	10001a0e 	bge	r2,zero,822f4 <exp+0xfc>
   8228c:	00800104 	movi	r2,4
   82290:	d8800015 	stw	r2,0(sp)
   82294:	a0c00017 	ldw	r3,0(r20)
   82298:	00800274 	movhi	r2,9
   8229c:	10901504 	addi	r2,r2,16468
   822a0:	d8800115 	stw	r2,4(sp)
   822a4:	d8000815 	stw	zero,32(sp)
   822a8:	dcc00415 	stw	r19,16(sp)
   822ac:	dc800515 	stw	r18,20(sp)
   822b0:	dcc00215 	stw	r19,8(sp)
   822b4:	dc800315 	stw	r18,12(sp)
   822b8:	d8000615 	stw	zero,24(sp)
   822bc:	d8000715 	stw	zero,28(sp)
   822c0:	00800084 	movi	r2,2
   822c4:	18802c26 	beq	r3,r2,82378 <exp+0x180>
   822c8:	d809883a 	mov	r4,sp
   822cc:	008288c0 	call	8288c <matherr>
   822d0:	10002926 	beq	r2,zero,82378 <exp+0x180>
   822d4:	d8800817 	ldw	r2,32(sp)
   822d8:	10000326 	beq	r2,zero,822e8 <exp+0xf0>
   822dc:	00864240 	call	86424 <__errno>
   822e0:	d8c00817 	ldw	r3,32(sp)
   822e4:	10c00015 	stw	r3,0(r2)
   822e8:	d8800617 	ldw	r2,24(sp)
   822ec:	d8c00717 	ldw	r3,28(sp)
   822f0:	00000206 	br	822fc <exp+0x104>
   822f4:	8805883a 	mov	r2,r17
   822f8:	8007883a 	mov	r3,r16
   822fc:	dfc00e17 	ldw	ra,56(sp)
   82300:	dd000d17 	ldw	r20,52(sp)
   82304:	dcc00c17 	ldw	r19,48(sp)
   82308:	dc800b17 	ldw	r18,44(sp)
   8230c:	dc400a17 	ldw	r17,40(sp)
   82310:	dc000917 	ldw	r16,36(sp)
   82314:	dec00f04 	addi	sp,sp,60
   82318:	f800283a 	ret
   8231c:	00c000c4 	movi	r3,3
   82320:	d8c00015 	stw	r3,0(sp)
   82324:	a0800017 	ldw	r2,0(r20)
   82328:	00c00274 	movhi	r3,9
   8232c:	18d01504 	addi	r3,r3,16468
   82330:	d8c00115 	stw	r3,4(sp)
   82334:	d8000815 	stw	zero,32(sp)
   82338:	dcc00415 	stw	r19,16(sp)
   8233c:	dc800515 	stw	r18,20(sp)
   82340:	dcc00215 	stw	r19,8(sp)
   82344:	dc800315 	stw	r18,12(sp)
   82348:	1000061e 	bne	r2,zero,82364 <exp+0x16c>
   8234c:	00b80034 	movhi	r2,57344
   82350:	d8800615 	stw	r2,24(sp)
   82354:	0091fc34 	movhi	r2,18416
   82358:	10bfffc4 	addi	r2,r2,-1
   8235c:	d8800715 	stw	r2,28(sp)
   82360:	003fd906 	br	822c8 <__alt_data_end+0xfffacb98>
   82364:	00dffc34 	movhi	r3,32752
   82368:	d8c00715 	stw	r3,28(sp)
   8236c:	d8000615 	stw	zero,24(sp)
   82370:	00c00084 	movi	r3,2
   82374:	10ffd41e 	bne	r2,r3,822c8 <__alt_data_end+0xfffacb98>
   82378:	00864240 	call	86424 <__errno>
   8237c:	00c00884 	movi	r3,34
   82380:	10c00015 	stw	r3,0(r2)
   82384:	003fd306 	br	822d4 <__alt_data_end+0xfffacba4>

00082388 <__ieee754_exp>:
   82388:	00e00034 	movhi	r3,32768
   8238c:	defff604 	addi	sp,sp,-40
   82390:	18ffffc4 	addi	r3,r3,-1
   82394:	009021b4 	movhi	r2,16518
   82398:	ddc00715 	stw	r23,28(sp)
   8239c:	dc400115 	stw	r17,4(sp)
   823a0:	dc000015 	stw	r16,0(sp)
   823a4:	dfc00915 	stw	ra,36(sp)
   823a8:	df000815 	stw	fp,32(sp)
   823ac:	dd800615 	stw	r22,24(sp)
   823b0:	dd400515 	stw	r21,20(sp)
   823b4:	dd000415 	stw	r20,16(sp)
   823b8:	dcc00315 	stw	r19,12(sp)
   823bc:	dc800215 	stw	r18,8(sp)
   823c0:	28c6703a 	and	r3,r5,r3
   823c4:	108b9044 	addi	r2,r2,11841
   823c8:	2821883a 	mov	r16,r5
   823cc:	2023883a 	mov	r17,r4
   823d0:	282ed7fa 	srli	r23,r5,31
   823d4:	10c00c2e 	bgeu	r2,r3,82408 <__ieee754_exp+0x80>
   823d8:	009ffc34 	movhi	r2,32752
   823dc:	10bfffc4 	addi	r2,r2,-1
   823e0:	10c08b2e 	bgeu	r2,r3,82610 <__ieee754_exp+0x288>
   823e4:	00800434 	movhi	r2,16
   823e8:	10bfffc4 	addi	r2,r2,-1
   823ec:	2884703a 	and	r2,r5,r2
   823f0:	1104b03a 	or	r2,r2,r4
   823f4:	1000fb1e 	bne	r2,zero,827e4 <__ieee754_exp+0x45c>
   823f8:	b8011a1e 	bne	r23,zero,82864 <__ieee754_exp+0x4dc>
   823fc:	2005883a 	mov	r2,r4
   82400:	2807883a 	mov	r3,r5
   82404:	00007606 	br	825e0 <__ieee754_exp+0x258>
   82408:	008ff5b4 	movhi	r2,16342
   8240c:	108b9084 	addi	r2,r2,11842
   82410:	10c0c336 	bltu	r2,r3,82720 <__ieee754_exp+0x398>
   82414:	008f8c34 	movhi	r2,15920
   82418:	10bfffc4 	addi	r2,r2,-1
   8241c:	10c0d52e 	bgeu	r2,r3,82774 <__ieee754_exp+0x3ec>
   82420:	0025883a 	mov	r18,zero
   82424:	880d883a 	mov	r6,r17
   82428:	800f883a 	mov	r7,r16
   8242c:	8809883a 	mov	r4,r17
   82430:	800b883a 	mov	r5,r16
   82434:	0084e440 	call	84e44 <__muldf3>
   82438:	019caff4 	movhi	r6,29375
   8243c:	01cf99b4 	movhi	r7,15974
   82440:	31a93404 	addi	r6,r6,-23344
   82444:	39cdda44 	addi	r7,r7,14185
   82448:	1009883a 	mov	r4,r2
   8244c:	180b883a 	mov	r5,r3
   82450:	1039883a 	mov	fp,r2
   82454:	182f883a 	mov	r23,r3
   82458:	0084e440 	call	84e44 <__muldf3>
   8245c:	01b174b4 	movhi	r6,50642
   82460:	01cfaf34 	movhi	r7,16060
   82464:	319afc44 	addi	r6,r6,27633
   82468:	39ef5044 	addi	r7,r7,-17087
   8246c:	1009883a 	mov	r4,r2
   82470:	180b883a 	mov	r5,r3
   82474:	00856b00 	call	856b0 <__subdf3>
   82478:	e00d883a 	mov	r6,fp
   8247c:	b80f883a 	mov	r7,r23
   82480:	1009883a 	mov	r4,r2
   82484:	180b883a 	mov	r5,r3
   82488:	0084e440 	call	84e44 <__muldf3>
   8248c:	01abc9b4 	movhi	r6,44838
   82490:	01cfc474 	movhi	r7,16145
   82494:	31b78b04 	addi	r6,r6,-8660
   82498:	39d59a84 	addi	r7,r7,22122
   8249c:	1009883a 	mov	r4,r2
   824a0:	180b883a 	mov	r5,r3
   824a4:	00839f80 	call	839f8 <__adddf3>
   824a8:	e00d883a 	mov	r6,fp
   824ac:	b80f883a 	mov	r7,r23
   824b0:	1009883a 	mov	r4,r2
   824b4:	180b883a 	mov	r5,r3
   824b8:	0084e440 	call	84e44 <__muldf3>
   824bc:	0185aff4 	movhi	r6,5823
   824c0:	01cfd9f4 	movhi	r7,16231
   824c4:	31af64c4 	addi	r6,r6,-17005
   824c8:	39f05b04 	addi	r7,r7,-16020
   824cc:	1009883a 	mov	r4,r2
   824d0:	180b883a 	mov	r5,r3
   824d4:	00856b00 	call	856b0 <__subdf3>
   824d8:	e00d883a 	mov	r6,fp
   824dc:	b80f883a 	mov	r7,r23
   824e0:	1009883a 	mov	r4,r2
   824e4:	180b883a 	mov	r5,r3
   824e8:	0084e440 	call	84e44 <__muldf3>
   824ec:	01955574 	movhi	r6,21845
   824f0:	01cff174 	movhi	r7,16325
   824f4:	31954f84 	addi	r6,r6,21822
   824f8:	39d55544 	addi	r7,r7,21845
   824fc:	1009883a 	mov	r4,r2
   82500:	180b883a 	mov	r5,r3
   82504:	00839f80 	call	839f8 <__adddf3>
   82508:	e00d883a 	mov	r6,fp
   8250c:	b80f883a 	mov	r7,r23
   82510:	1009883a 	mov	r4,r2
   82514:	180b883a 	mov	r5,r3
   82518:	0084e440 	call	84e44 <__muldf3>
   8251c:	100d883a 	mov	r6,r2
   82520:	180f883a 	mov	r7,r3
   82524:	8809883a 	mov	r4,r17
   82528:	800b883a 	mov	r5,r16
   8252c:	00856b00 	call	856b0 <__subdf3>
   82530:	1039883a 	mov	fp,r2
   82534:	182f883a 	mov	r23,r3
   82538:	9000ae26 	beq	r18,zero,827f4 <__ieee754_exp+0x46c>
   8253c:	8809883a 	mov	r4,r17
   82540:	800b883a 	mov	r5,r16
   82544:	100d883a 	mov	r6,r2
   82548:	180f883a 	mov	r7,r3
   8254c:	0084e440 	call	84e44 <__muldf3>
   82550:	e00d883a 	mov	r6,fp
   82554:	b80f883a 	mov	r7,r23
   82558:	0009883a 	mov	r4,zero
   8255c:	01500034 	movhi	r5,16384
   82560:	1023883a 	mov	r17,r2
   82564:	1821883a 	mov	r16,r3
   82568:	00856b00 	call	856b0 <__subdf3>
   8256c:	100d883a 	mov	r6,r2
   82570:	180f883a 	mov	r7,r3
   82574:	8809883a 	mov	r4,r17
   82578:	800b883a 	mov	r5,r16
   8257c:	00842a40 	call	842a4 <__divdf3>
   82580:	100d883a 	mov	r6,r2
   82584:	180f883a 	mov	r7,r3
   82588:	b009883a 	mov	r4,r22
   8258c:	a80b883a 	mov	r5,r21
   82590:	00856b00 	call	856b0 <__subdf3>
   82594:	a00d883a 	mov	r6,r20
   82598:	980f883a 	mov	r7,r19
   8259c:	1009883a 	mov	r4,r2
   825a0:	180b883a 	mov	r5,r3
   825a4:	00856b00 	call	856b0 <__subdf3>
   825a8:	0009883a 	mov	r4,zero
   825ac:	100d883a 	mov	r6,r2
   825b0:	180f883a 	mov	r7,r3
   825b4:	014ffc34 	movhi	r5,16368
   825b8:	00856b00 	call	856b0 <__subdf3>
   825bc:	013f00c4 	movi	r4,-1021
   825c0:	91007d0e 	bge	r18,r4,827b8 <__ieee754_exp+0x430>
   825c4:	9140fa04 	addi	r5,r18,1000
   825c8:	280a953a 	slli	r5,r5,20
   825cc:	000d883a 	mov	r6,zero
   825d0:	01c05c34 	movhi	r7,368
   825d4:	1009883a 	mov	r4,r2
   825d8:	28cb883a 	add	r5,r5,r3
   825dc:	0084e440 	call	84e44 <__muldf3>
   825e0:	dfc00917 	ldw	ra,36(sp)
   825e4:	df000817 	ldw	fp,32(sp)
   825e8:	ddc00717 	ldw	r23,28(sp)
   825ec:	dd800617 	ldw	r22,24(sp)
   825f0:	dd400517 	ldw	r21,20(sp)
   825f4:	dd000417 	ldw	r20,16(sp)
   825f8:	dcc00317 	ldw	r19,12(sp)
   825fc:	dc800217 	ldw	r18,8(sp)
   82600:	dc400117 	ldw	r17,4(sp)
   82604:	dc000017 	ldw	r16,0(sp)
   82608:	dec00a04 	addi	sp,sp,40
   8260c:	f800283a 	ret
   82610:	01bfbeb4 	movhi	r6,65274
   82614:	01d021b4 	movhi	r7,16518
   82618:	318e7bc4 	addi	r6,r6,14831
   8261c:	39cb9084 	addi	r7,r7,11842
   82620:	0084c740 	call	84c74 <__gedf2>
   82624:	00806716 	blt	zero,r2,827c4 <__ieee754_exp+0x43c>
   82628:	01b54b74 	movhi	r6,54573
   8262c:	01f021f4 	movhi	r7,49287
   82630:	318c1444 	addi	r6,r6,12369
   82634:	39d24404 	addi	r7,r7,18704
   82638:	8809883a 	mov	r4,r17
   8263c:	800b883a 	mov	r5,r16
   82640:	0084d500 	call	84d50 <__ledf2>
   82644:	10008716 	blt	r2,zero,82864 <__ieee754_exp+0x4dc>
   82648:	b82490fa 	slli	r18,r23,3
   8264c:	01994b34 	movhi	r6,25900
   82650:	01cffdf4 	movhi	r7,16375
   82654:	05c00274 	movhi	r23,9
   82658:	31a0bf84 	addi	r6,r6,-32002
   8265c:	39c551c4 	addi	r7,r7,5447
   82660:	8809883a 	mov	r4,r17
   82664:	800b883a 	mov	r5,r16
   82668:	bdd01e04 	addi	r23,r23,16504
   8266c:	0084e440 	call	84e44 <__muldf3>
   82670:	bca5883a 	add	r18,r23,r18
   82674:	91800017 	ldw	r6,0(r18)
   82678:	91c00117 	ldw	r7,4(r18)
   8267c:	1009883a 	mov	r4,r2
   82680:	180b883a 	mov	r5,r3
   82684:	00839f80 	call	839f8 <__adddf3>
   82688:	180b883a 	mov	r5,r3
   8268c:	1009883a 	mov	r4,r2
   82690:	0085fac0 	call	85fac <__fixdfsi>
   82694:	1009883a 	mov	r4,r2
   82698:	1025883a 	mov	r18,r2
   8269c:	008602c0 	call	8602c <__floatsidf>
   826a0:	01cff9b4 	movhi	r7,16358
   826a4:	39cb9084 	addi	r7,r7,11842
   826a8:	01bfb834 	movhi	r6,65248
   826ac:	1009883a 	mov	r4,r2
   826b0:	180b883a 	mov	r5,r3
   826b4:	102d883a 	mov	r22,r2
   826b8:	182b883a 	mov	r21,r3
   826bc:	0084e440 	call	84e44 <__muldf3>
   826c0:	100d883a 	mov	r6,r2
   826c4:	180f883a 	mov	r7,r3
   826c8:	8809883a 	mov	r4,r17
   826cc:	800b883a 	mov	r5,r16
   826d0:	00856b00 	call	856b0 <__subdf3>
   826d4:	018d5e74 	movhi	r6,13689
   826d8:	01cf7ab4 	movhi	r7,15850
   826dc:	b009883a 	mov	r4,r22
   826e0:	a80b883a 	mov	r5,r21
   826e4:	318f1d84 	addi	r6,r6,15478
   826e8:	39ce7bc4 	addi	r7,r7,14831
   826ec:	1029883a 	mov	r20,r2
   826f0:	1827883a 	mov	r19,r3
   826f4:	0084e440 	call	84e44 <__muldf3>
   826f8:	102d883a 	mov	r22,r2
   826fc:	182b883a 	mov	r21,r3
   82700:	b00d883a 	mov	r6,r22
   82704:	a80f883a 	mov	r7,r21
   82708:	a009883a 	mov	r4,r20
   8270c:	980b883a 	mov	r5,r19
   82710:	00856b00 	call	856b0 <__subdf3>
   82714:	1023883a 	mov	r17,r2
   82718:	1821883a 	mov	r16,r3
   8271c:	003f4106 	br	82424 <__alt_data_end+0xfffaccf4>
   82720:	008ffc74 	movhi	r2,16369
   82724:	10a8ac44 	addi	r2,r2,-23887
   82728:	10ffc736 	bltu	r2,r3,82648 <__alt_data_end+0xfffacf18>
   8272c:	b82290fa 	slli	r17,r23,3
   82730:	00800274 	movhi	r2,9
   82734:	10901a04 	addi	r2,r2,16488
   82738:	1445883a 	add	r2,r2,r17
   8273c:	11800017 	ldw	r6,0(r2)
   82740:	11c00117 	ldw	r7,4(r2)
   82744:	04800044 	movi	r18,1
   82748:	95e5c83a 	sub	r18,r18,r23
   8274c:	00856b00 	call	856b0 <__subdf3>
   82750:	1029883a 	mov	r20,r2
   82754:	00800274 	movhi	r2,9
   82758:	10901604 	addi	r2,r2,16472
   8275c:	1463883a 	add	r17,r2,r17
   82760:	1827883a 	mov	r19,r3
   82764:	8d800017 	ldw	r22,0(r17)
   82768:	8d400117 	ldw	r21,4(r17)
   8276c:	95e5c83a 	sub	r18,r18,r23
   82770:	003fe306 	br	82700 <__alt_data_end+0xfffacfd0>
   82774:	01a20034 	movhi	r6,34816
   82778:	01df8e34 	movhi	r7,32312
   8277c:	319d6704 	addi	r6,r6,30108
   82780:	39f90f04 	addi	r7,r7,-7108
   82784:	00839f80 	call	839f8 <__adddf3>
   82788:	000d883a 	mov	r6,zero
   8278c:	01cffc34 	movhi	r7,16368
   82790:	1009883a 	mov	r4,r2
   82794:	180b883a 	mov	r5,r3
   82798:	0084c740 	call	84c74 <__gedf2>
   8279c:	00bf200e 	bge	zero,r2,82420 <__alt_data_end+0xfffaccf0>
   827a0:	000d883a 	mov	r6,zero
   827a4:	01cffc34 	movhi	r7,16368
   827a8:	8809883a 	mov	r4,r17
   827ac:	800b883a 	mov	r5,r16
   827b0:	00839f80 	call	839f8 <__adddf3>
   827b4:	003f8a06 	br	825e0 <__alt_data_end+0xfffaceb0>
   827b8:	9020953a 	slli	r16,r18,20
   827bc:	80c7883a 	add	r3,r16,r3
   827c0:	003f8706 	br	825e0 <__alt_data_end+0xfffaceb0>
   827c4:	01a20034 	movhi	r6,34816
   827c8:	01df8e34 	movhi	r7,32312
   827cc:	319d6704 	addi	r6,r6,30108
   827d0:	39f90f04 	addi	r7,r7,-7108
   827d4:	3009883a 	mov	r4,r6
   827d8:	380b883a 	mov	r5,r7
   827dc:	0084e440 	call	84e44 <__muldf3>
   827e0:	003f7f06 	br	825e0 <__alt_data_end+0xfffaceb0>
   827e4:	200d883a 	mov	r6,r4
   827e8:	280f883a 	mov	r7,r5
   827ec:	00839f80 	call	839f8 <__adddf3>
   827f0:	003f7b06 	br	825e0 <__alt_data_end+0xfffaceb0>
   827f4:	8809883a 	mov	r4,r17
   827f8:	800b883a 	mov	r5,r16
   827fc:	100d883a 	mov	r6,r2
   82800:	180f883a 	mov	r7,r3
   82804:	0084e440 	call	84e44 <__muldf3>
   82808:	e009883a 	mov	r4,fp
   8280c:	b80b883a 	mov	r5,r23
   82810:	000d883a 	mov	r6,zero
   82814:	01d00034 	movhi	r7,16384
   82818:	1027883a 	mov	r19,r2
   8281c:	1825883a 	mov	r18,r3
   82820:	00856b00 	call	856b0 <__subdf3>
   82824:	9809883a 	mov	r4,r19
   82828:	900b883a 	mov	r5,r18
   8282c:	100d883a 	mov	r6,r2
   82830:	180f883a 	mov	r7,r3
   82834:	00842a40 	call	842a4 <__divdf3>
   82838:	880d883a 	mov	r6,r17
   8283c:	800f883a 	mov	r7,r16
   82840:	1009883a 	mov	r4,r2
   82844:	180b883a 	mov	r5,r3
   82848:	00856b00 	call	856b0 <__subdf3>
   8284c:	100d883a 	mov	r6,r2
   82850:	180f883a 	mov	r7,r3
   82854:	0009883a 	mov	r4,zero
   82858:	014ffc34 	movhi	r5,16368
   8285c:	00856b00 	call	856b0 <__subdf3>
   82860:	003f5f06 	br	825e0 <__alt_data_end+0xfffaceb0>
   82864:	0005883a 	mov	r2,zero
   82868:	0007883a 	mov	r3,zero
   8286c:	003f5c06 	br	825e0 <__alt_data_end+0xfffaceb0>

00082870 <finite>:
   82870:	00a00034 	movhi	r2,32768
   82874:	10bfffc4 	addi	r2,r2,-1
   82878:	288a703a 	and	r5,r5,r2
   8287c:	00e00434 	movhi	r3,32784
   82880:	28c5883a 	add	r2,r5,r3
   82884:	1004d7fa 	srli	r2,r2,31
   82888:	f800283a 	ret

0008288c <matherr>:
   8288c:	0005883a 	mov	r2,zero
   82890:	f800283a 	ret

00082894 <__divsi3>:
   82894:	20001b16 	blt	r4,zero,82904 <__divsi3+0x70>
   82898:	000f883a 	mov	r7,zero
   8289c:	28001616 	blt	r5,zero,828f8 <__divsi3+0x64>
   828a0:	200d883a 	mov	r6,r4
   828a4:	29001a2e 	bgeu	r5,r4,82910 <__divsi3+0x7c>
   828a8:	00800804 	movi	r2,32
   828ac:	00c00044 	movi	r3,1
   828b0:	00000106 	br	828b8 <__divsi3+0x24>
   828b4:	10000d26 	beq	r2,zero,828ec <__divsi3+0x58>
   828b8:	294b883a 	add	r5,r5,r5
   828bc:	10bfffc4 	addi	r2,r2,-1
   828c0:	18c7883a 	add	r3,r3,r3
   828c4:	293ffb36 	bltu	r5,r4,828b4 <__alt_data_end+0xfffad184>
   828c8:	0005883a 	mov	r2,zero
   828cc:	18000726 	beq	r3,zero,828ec <__divsi3+0x58>
   828d0:	0005883a 	mov	r2,zero
   828d4:	31400236 	bltu	r6,r5,828e0 <__divsi3+0x4c>
   828d8:	314dc83a 	sub	r6,r6,r5
   828dc:	10c4b03a 	or	r2,r2,r3
   828e0:	1806d07a 	srli	r3,r3,1
   828e4:	280ad07a 	srli	r5,r5,1
   828e8:	183ffa1e 	bne	r3,zero,828d4 <__alt_data_end+0xfffad1a4>
   828ec:	38000126 	beq	r7,zero,828f4 <__divsi3+0x60>
   828f0:	0085c83a 	sub	r2,zero,r2
   828f4:	f800283a 	ret
   828f8:	014bc83a 	sub	r5,zero,r5
   828fc:	39c0005c 	xori	r7,r7,1
   82900:	003fe706 	br	828a0 <__alt_data_end+0xfffad170>
   82904:	0109c83a 	sub	r4,zero,r4
   82908:	01c00044 	movi	r7,1
   8290c:	003fe306 	br	8289c <__alt_data_end+0xfffad16c>
   82910:	00c00044 	movi	r3,1
   82914:	003fee06 	br	828d0 <__alt_data_end+0xfffad1a0>

00082918 <__modsi3>:
   82918:	20001716 	blt	r4,zero,82978 <__modsi3+0x60>
   8291c:	000f883a 	mov	r7,zero
   82920:	2005883a 	mov	r2,r4
   82924:	28001216 	blt	r5,zero,82970 <__modsi3+0x58>
   82928:	2900162e 	bgeu	r5,r4,82984 <__modsi3+0x6c>
   8292c:	01800804 	movi	r6,32
   82930:	00c00044 	movi	r3,1
   82934:	00000106 	br	8293c <__modsi3+0x24>
   82938:	30000a26 	beq	r6,zero,82964 <__modsi3+0x4c>
   8293c:	294b883a 	add	r5,r5,r5
   82940:	31bfffc4 	addi	r6,r6,-1
   82944:	18c7883a 	add	r3,r3,r3
   82948:	293ffb36 	bltu	r5,r4,82938 <__alt_data_end+0xfffad208>
   8294c:	18000526 	beq	r3,zero,82964 <__modsi3+0x4c>
   82950:	1806d07a 	srli	r3,r3,1
   82954:	11400136 	bltu	r2,r5,8295c <__modsi3+0x44>
   82958:	1145c83a 	sub	r2,r2,r5
   8295c:	280ad07a 	srli	r5,r5,1
   82960:	183ffb1e 	bne	r3,zero,82950 <__alt_data_end+0xfffad220>
   82964:	38000126 	beq	r7,zero,8296c <__modsi3+0x54>
   82968:	0085c83a 	sub	r2,zero,r2
   8296c:	f800283a 	ret
   82970:	014bc83a 	sub	r5,zero,r5
   82974:	003fec06 	br	82928 <__alt_data_end+0xfffad1f8>
   82978:	0109c83a 	sub	r4,zero,r4
   8297c:	01c00044 	movi	r7,1
   82980:	003fe706 	br	82920 <__alt_data_end+0xfffad1f0>
   82984:	00c00044 	movi	r3,1
   82988:	003ff106 	br	82950 <__alt_data_end+0xfffad220>

0008298c <__udivsi3>:
   8298c:	200d883a 	mov	r6,r4
   82990:	2900152e 	bgeu	r5,r4,829e8 <__udivsi3+0x5c>
   82994:	28001416 	blt	r5,zero,829e8 <__udivsi3+0x5c>
   82998:	00800804 	movi	r2,32
   8299c:	00c00044 	movi	r3,1
   829a0:	00000206 	br	829ac <__udivsi3+0x20>
   829a4:	10000e26 	beq	r2,zero,829e0 <__udivsi3+0x54>
   829a8:	28000516 	blt	r5,zero,829c0 <__udivsi3+0x34>
   829ac:	294b883a 	add	r5,r5,r5
   829b0:	10bfffc4 	addi	r2,r2,-1
   829b4:	18c7883a 	add	r3,r3,r3
   829b8:	293ffa36 	bltu	r5,r4,829a4 <__alt_data_end+0xfffad274>
   829bc:	18000826 	beq	r3,zero,829e0 <__udivsi3+0x54>
   829c0:	0005883a 	mov	r2,zero
   829c4:	31400236 	bltu	r6,r5,829d0 <__udivsi3+0x44>
   829c8:	314dc83a 	sub	r6,r6,r5
   829cc:	10c4b03a 	or	r2,r2,r3
   829d0:	1806d07a 	srli	r3,r3,1
   829d4:	280ad07a 	srli	r5,r5,1
   829d8:	183ffa1e 	bne	r3,zero,829c4 <__alt_data_end+0xfffad294>
   829dc:	f800283a 	ret
   829e0:	0005883a 	mov	r2,zero
   829e4:	f800283a 	ret
   829e8:	00c00044 	movi	r3,1
   829ec:	003ff406 	br	829c0 <__alt_data_end+0xfffad290>

000829f0 <__umodsi3>:
   829f0:	2005883a 	mov	r2,r4
   829f4:	2900122e 	bgeu	r5,r4,82a40 <__umodsi3+0x50>
   829f8:	28001116 	blt	r5,zero,82a40 <__umodsi3+0x50>
   829fc:	01800804 	movi	r6,32
   82a00:	00c00044 	movi	r3,1
   82a04:	00000206 	br	82a10 <__umodsi3+0x20>
   82a08:	30000c26 	beq	r6,zero,82a3c <__umodsi3+0x4c>
   82a0c:	28000516 	blt	r5,zero,82a24 <__umodsi3+0x34>
   82a10:	294b883a 	add	r5,r5,r5
   82a14:	31bfffc4 	addi	r6,r6,-1
   82a18:	18c7883a 	add	r3,r3,r3
   82a1c:	293ffa36 	bltu	r5,r4,82a08 <__alt_data_end+0xfffad2d8>
   82a20:	18000626 	beq	r3,zero,82a3c <__umodsi3+0x4c>
   82a24:	1806d07a 	srli	r3,r3,1
   82a28:	11400136 	bltu	r2,r5,82a30 <__umodsi3+0x40>
   82a2c:	1145c83a 	sub	r2,r2,r5
   82a30:	280ad07a 	srli	r5,r5,1
   82a34:	183ffb1e 	bne	r3,zero,82a24 <__alt_data_end+0xfffad2f4>
   82a38:	f800283a 	ret
   82a3c:	f800283a 	ret
   82a40:	00c00044 	movi	r3,1
   82a44:	003ff706 	br	82a24 <__alt_data_end+0xfffad2f4>

00082a48 <__mulsi3>:
   82a48:	0005883a 	mov	r2,zero
   82a4c:	20000726 	beq	r4,zero,82a6c <__mulsi3+0x24>
   82a50:	20c0004c 	andi	r3,r4,1
   82a54:	2008d07a 	srli	r4,r4,1
   82a58:	18000126 	beq	r3,zero,82a60 <__mulsi3+0x18>
   82a5c:	1145883a 	add	r2,r2,r5
   82a60:	294b883a 	add	r5,r5,r5
   82a64:	203ffa1e 	bne	r4,zero,82a50 <__alt_data_end+0xfffad320>
   82a68:	f800283a 	ret
   82a6c:	f800283a 	ret

00082a70 <__addsf3>:
   82a70:	defffc04 	addi	sp,sp,-16
   82a74:	2004d7fa 	srli	r2,r4,31
   82a78:	280cd5fa 	srli	r6,r5,23
   82a7c:	dc000015 	stw	r16,0(sp)
   82a80:	00c02034 	movhi	r3,128
   82a84:	2020d5fa 	srli	r16,r4,23
   82a88:	280ed7fa 	srli	r7,r5,31
   82a8c:	18ffffc4 	addi	r3,r3,-1
   82a90:	dc400115 	stw	r17,4(sp)
   82a94:	1908703a 	and	r4,r3,r4
   82a98:	194a703a 	and	r5,r3,r5
   82a9c:	dfc00315 	stw	ra,12(sp)
   82aa0:	dc800215 	stw	r18,8(sp)
   82aa4:	14403fcc 	andi	r17,r2,255
   82aa8:	84003fcc 	andi	r16,r16,255
   82aac:	200890fa 	slli	r4,r4,3
   82ab0:	31803fcc 	andi	r6,r6,255
   82ab4:	280a90fa 	slli	r5,r5,3
   82ab8:	89c05026 	beq	r17,r7,82bfc <__addsf3+0x18c>
   82abc:	8185c83a 	sub	r2,r16,r6
   82ac0:	00807a0e 	bge	zero,r2,82cac <__addsf3+0x23c>
   82ac4:	30001e1e 	bne	r6,zero,82b40 <__addsf3+0xd0>
   82ac8:	28006d1e 	bne	r5,zero,82c80 <__addsf3+0x210>
   82acc:	208001cc 	andi	r2,r4,7
   82ad0:	10000426 	beq	r2,zero,82ae4 <__addsf3+0x74>
   82ad4:	208003cc 	andi	r2,r4,15
   82ad8:	00c00104 	movi	r3,4
   82adc:	10c00126 	beq	r2,r3,82ae4 <__addsf3+0x74>
   82ae0:	20c9883a 	add	r4,r4,r3
   82ae4:	2081002c 	andhi	r2,r4,1024
   82ae8:	10003926 	beq	r2,zero,82bd0 <__addsf3+0x160>
   82aec:	84000044 	addi	r16,r16,1
   82af0:	00803fc4 	movi	r2,255
   82af4:	80807826 	beq	r16,r2,82cd8 <__addsf3+0x268>
   82af8:	200891ba 	slli	r4,r4,6
   82afc:	8805883a 	mov	r2,r17
   82b00:	2008d27a 	srli	r4,r4,9
   82b04:	84003fcc 	andi	r16,r16,255
   82b08:	800695fa 	slli	r3,r16,23
   82b0c:	10803fcc 	andi	r2,r2,255
   82b10:	04002034 	movhi	r16,128
   82b14:	843fffc4 	addi	r16,r16,-1
   82b18:	100497fa 	slli	r2,r2,31
   82b1c:	2408703a 	and	r4,r4,r16
   82b20:	20e0b03a 	or	r16,r4,r3
   82b24:	8084b03a 	or	r2,r16,r2
   82b28:	dfc00317 	ldw	ra,12(sp)
   82b2c:	dc800217 	ldw	r18,8(sp)
   82b30:	dc400117 	ldw	r17,4(sp)
   82b34:	dc000017 	ldw	r16,0(sp)
   82b38:	dec00404 	addi	sp,sp,16
   82b3c:	f800283a 	ret
   82b40:	00c03fc4 	movi	r3,255
   82b44:	80ffe126 	beq	r16,r3,82acc <__alt_data_end+0xfffad39c>
   82b48:	29410034 	orhi	r5,r5,1024
   82b4c:	00c006c4 	movi	r3,27
   82b50:	18807516 	blt	r3,r2,82d28 <__addsf3+0x2b8>
   82b54:	00c00804 	movi	r3,32
   82b58:	1887c83a 	sub	r3,r3,r2
   82b5c:	28c6983a 	sll	r3,r5,r3
   82b60:	288ad83a 	srl	r5,r5,r2
   82b64:	1804c03a 	cmpne	r2,r3,zero
   82b68:	288ab03a 	or	r5,r5,r2
   82b6c:	2149c83a 	sub	r4,r4,r5
   82b70:	2081002c 	andhi	r2,r4,1024
   82b74:	10001426 	beq	r2,zero,82bc8 <__addsf3+0x158>
   82b78:	04810034 	movhi	r18,1024
   82b7c:	94bfffc4 	addi	r18,r18,-1
   82b80:	24a4703a 	and	r18,r4,r18
   82b84:	9009883a 	mov	r4,r18
   82b88:	00863c00 	call	863c0 <__clzsi2>
   82b8c:	10bffec4 	addi	r2,r2,-5
   82b90:	90a4983a 	sll	r18,r18,r2
   82b94:	14005416 	blt	r2,r16,82ce8 <__addsf3+0x278>
   82b98:	1405c83a 	sub	r2,r2,r16
   82b9c:	11000044 	addi	r4,r2,1
   82ba0:	00800804 	movi	r2,32
   82ba4:	1105c83a 	sub	r2,r2,r4
   82ba8:	9084983a 	sll	r2,r18,r2
   82bac:	9124d83a 	srl	r18,r18,r4
   82bb0:	0021883a 	mov	r16,zero
   82bb4:	1008c03a 	cmpne	r4,r2,zero
   82bb8:	9108b03a 	or	r4,r18,r4
   82bbc:	003fc306 	br	82acc <__alt_data_end+0xfffad39c>
   82bc0:	1000db26 	beq	r2,zero,82f30 <__addsf3+0x4c0>
   82bc4:	1009883a 	mov	r4,r2
   82bc8:	208001cc 	andi	r2,r4,7
   82bcc:	103fc11e 	bne	r2,zero,82ad4 <__alt_data_end+0xfffad3a4>
   82bd0:	2006d0fa 	srli	r3,r4,3
   82bd4:	01003fc4 	movi	r4,255
   82bd8:	8805883a 	mov	r2,r17
   82bdc:	8100241e 	bne	r16,r4,82c70 <__addsf3+0x200>
   82be0:	18006e26 	beq	r3,zero,82d9c <__addsf3+0x32c>
   82be4:	19001034 	orhi	r4,r3,64
   82be8:	00c02034 	movhi	r3,128
   82bec:	18ffffc4 	addi	r3,r3,-1
   82bf0:	043fffc4 	movi	r16,-1
   82bf4:	20c8703a 	and	r4,r4,r3
   82bf8:	003fc206 	br	82b04 <__alt_data_end+0xfffad3d4>
   82bfc:	8187c83a 	sub	r3,r16,r6
   82c00:	00c03e0e 	bge	zero,r3,82cfc <__addsf3+0x28c>
   82c04:	30002326 	beq	r6,zero,82c94 <__addsf3+0x224>
   82c08:	01803fc4 	movi	r6,255
   82c0c:	81bfaf26 	beq	r16,r6,82acc <__alt_data_end+0xfffad39c>
   82c10:	29410034 	orhi	r5,r5,1024
   82c14:	018006c4 	movi	r6,27
   82c18:	30c07416 	blt	r6,r3,82dec <__addsf3+0x37c>
   82c1c:	01800804 	movi	r6,32
   82c20:	30cdc83a 	sub	r6,r6,r3
   82c24:	298c983a 	sll	r6,r5,r6
   82c28:	28cad83a 	srl	r5,r5,r3
   82c2c:	3006c03a 	cmpne	r3,r6,zero
   82c30:	28cab03a 	or	r5,r5,r3
   82c34:	2149883a 	add	r4,r4,r5
   82c38:	20c1002c 	andhi	r3,r4,1024
   82c3c:	183fe226 	beq	r3,zero,82bc8 <__alt_data_end+0xfffad498>
   82c40:	84000044 	addi	r16,r16,1
   82c44:	00c03fc4 	movi	r3,255
   82c48:	80c05426 	beq	r16,r3,82d9c <__addsf3+0x32c>
   82c4c:	00bf0034 	movhi	r2,64512
   82c50:	10bfffc4 	addi	r2,r2,-1
   82c54:	20c0004c 	andi	r3,r4,1
   82c58:	2088703a 	and	r4,r4,r2
   82c5c:	2008d07a 	srli	r4,r4,1
   82c60:	20c8b03a 	or	r4,r4,r3
   82c64:	003f9906 	br	82acc <__alt_data_end+0xfffad39c>
   82c68:	0007883a 	mov	r3,zero
   82c6c:	0005883a 	mov	r2,zero
   82c70:	01002034 	movhi	r4,128
   82c74:	213fffc4 	addi	r4,r4,-1
   82c78:	1908703a 	and	r4,r3,r4
   82c7c:	003fa106 	br	82b04 <__alt_data_end+0xfffad3d4>
   82c80:	10bfffc4 	addi	r2,r2,-1
   82c84:	103fb926 	beq	r2,zero,82b6c <__alt_data_end+0xfffad43c>
   82c88:	00c03fc4 	movi	r3,255
   82c8c:	80ffaf1e 	bne	r16,r3,82b4c <__alt_data_end+0xfffad41c>
   82c90:	003f8e06 	br	82acc <__alt_data_end+0xfffad39c>
   82c94:	283f8d26 	beq	r5,zero,82acc <__alt_data_end+0xfffad39c>
   82c98:	18ffffc4 	addi	r3,r3,-1
   82c9c:	183fe526 	beq	r3,zero,82c34 <__alt_data_end+0xfffad504>
   82ca0:	01803fc4 	movi	r6,255
   82ca4:	81bfdb1e 	bne	r16,r6,82c14 <__alt_data_end+0xfffad4e4>
   82ca8:	003f8806 	br	82acc <__alt_data_end+0xfffad39c>
   82cac:	1000201e 	bne	r2,zero,82d30 <__addsf3+0x2c0>
   82cb0:	80800044 	addi	r2,r16,1
   82cb4:	10803fcc 	andi	r2,r2,255
   82cb8:	01800044 	movi	r6,1
   82cbc:	3080450e 	bge	r6,r2,82dd4 <__addsf3+0x364>
   82cc0:	2165c83a 	sub	r18,r4,r5
   82cc4:	90c1002c 	andhi	r3,r18,1024
   82cc8:	18002b26 	beq	r3,zero,82d78 <__addsf3+0x308>
   82ccc:	2925c83a 	sub	r18,r5,r4
   82cd0:	3823883a 	mov	r17,r7
   82cd4:	003fab06 	br	82b84 <__alt_data_end+0xfffad454>
   82cd8:	8805883a 	mov	r2,r17
   82cdc:	043fffc4 	movi	r16,-1
   82ce0:	0009883a 	mov	r4,zero
   82ce4:	003f8706 	br	82b04 <__alt_data_end+0xfffad3d4>
   82ce8:	013f0034 	movhi	r4,64512
   82cec:	213fffc4 	addi	r4,r4,-1
   82cf0:	80a1c83a 	sub	r16,r16,r2
   82cf4:	9108703a 	and	r4,r18,r4
   82cf8:	003f7406 	br	82acc <__alt_data_end+0xfffad39c>
   82cfc:	1800411e 	bne	r3,zero,82e04 <__addsf3+0x394>
   82d00:	80c00044 	addi	r3,r16,1
   82d04:	19c03fcc 	andi	r7,r3,255
   82d08:	01800044 	movi	r6,1
   82d0c:	31c0260e 	bge	r6,r7,82da8 <__addsf3+0x338>
   82d10:	01803fc4 	movi	r6,255
   82d14:	19802126 	beq	r3,r6,82d9c <__addsf3+0x32c>
   82d18:	2149883a 	add	r4,r4,r5
   82d1c:	2008d07a 	srli	r4,r4,1
   82d20:	1821883a 	mov	r16,r3
   82d24:	003f6906 	br	82acc <__alt_data_end+0xfffad39c>
   82d28:	01400044 	movi	r5,1
   82d2c:	003f8f06 	br	82b6c <__alt_data_end+0xfffad43c>
   82d30:	8000151e 	bne	r16,zero,82d88 <__addsf3+0x318>
   82d34:	20002f26 	beq	r4,zero,82df4 <__addsf3+0x384>
   82d38:	0084303a 	nor	r2,zero,r2
   82d3c:	10000a26 	beq	r2,zero,82d68 <__addsf3+0x2f8>
   82d40:	00c03fc4 	movi	r3,255
   82d44:	30c02b26 	beq	r6,r3,82df4 <__addsf3+0x384>
   82d48:	00c006c4 	movi	r3,27
   82d4c:	18806d16 	blt	r3,r2,82f04 <__addsf3+0x494>
   82d50:	00c00804 	movi	r3,32
   82d54:	1887c83a 	sub	r3,r3,r2
   82d58:	20c6983a 	sll	r3,r4,r3
   82d5c:	2084d83a 	srl	r2,r4,r2
   82d60:	1808c03a 	cmpne	r4,r3,zero
   82d64:	1108b03a 	or	r4,r2,r4
   82d68:	2909c83a 	sub	r4,r5,r4
   82d6c:	3021883a 	mov	r16,r6
   82d70:	3823883a 	mov	r17,r7
   82d74:	003f7e06 	br	82b70 <__alt_data_end+0xfffad440>
   82d78:	903f821e 	bne	r18,zero,82b84 <__alt_data_end+0xfffad454>
   82d7c:	0005883a 	mov	r2,zero
   82d80:	0021883a 	mov	r16,zero
   82d84:	003fba06 	br	82c70 <__alt_data_end+0xfffad540>
   82d88:	00c03fc4 	movi	r3,255
   82d8c:	30c01926 	beq	r6,r3,82df4 <__addsf3+0x384>
   82d90:	0085c83a 	sub	r2,zero,r2
   82d94:	21010034 	orhi	r4,r4,1024
   82d98:	003feb06 	br	82d48 <__alt_data_end+0xfffad618>
   82d9c:	043fffc4 	movi	r16,-1
   82da0:	0009883a 	mov	r4,zero
   82da4:	003f5706 	br	82b04 <__alt_data_end+0xfffad3d4>
   82da8:	80004a1e 	bne	r16,zero,82ed4 <__addsf3+0x464>
   82dac:	20005926 	beq	r4,zero,82f14 <__addsf3+0x4a4>
   82db0:	283f4626 	beq	r5,zero,82acc <__alt_data_end+0xfffad39c>
   82db4:	2149883a 	add	r4,r4,r5
   82db8:	2081002c 	andhi	r2,r4,1024
   82dbc:	103f8226 	beq	r2,zero,82bc8 <__alt_data_end+0xfffad498>
   82dc0:	00bf0034 	movhi	r2,64512
   82dc4:	10bfffc4 	addi	r2,r2,-1
   82dc8:	3021883a 	mov	r16,r6
   82dcc:	2088703a 	and	r4,r4,r2
   82dd0:	003f3e06 	br	82acc <__alt_data_end+0xfffad39c>
   82dd4:	8000121e 	bne	r16,zero,82e20 <__addsf3+0x3b0>
   82dd8:	2000261e 	bne	r4,zero,82e74 <__addsf3+0x404>
   82ddc:	283fa226 	beq	r5,zero,82c68 <__alt_data_end+0xfffad538>
   82de0:	2809883a 	mov	r4,r5
   82de4:	3823883a 	mov	r17,r7
   82de8:	003f3806 	br	82acc <__alt_data_end+0xfffad39c>
   82dec:	01400044 	movi	r5,1
   82df0:	003f9006 	br	82c34 <__alt_data_end+0xfffad504>
   82df4:	2809883a 	mov	r4,r5
   82df8:	3021883a 	mov	r16,r6
   82dfc:	3823883a 	mov	r17,r7
   82e00:	003f3206 	br	82acc <__alt_data_end+0xfffad39c>
   82e04:	80000c1e 	bne	r16,zero,82e38 <__addsf3+0x3c8>
   82e08:	20002f26 	beq	r4,zero,82ec8 <__addsf3+0x458>
   82e0c:	00c6303a 	nor	r3,zero,r3
   82e10:	18002b1e 	bne	r3,zero,82ec0 <__addsf3+0x450>
   82e14:	2149883a 	add	r4,r4,r5
   82e18:	3021883a 	mov	r16,r6
   82e1c:	003f8606 	br	82c38 <__alt_data_end+0xfffad508>
   82e20:	20001b1e 	bne	r4,zero,82e90 <__addsf3+0x420>
   82e24:	28003926 	beq	r5,zero,82f0c <__addsf3+0x49c>
   82e28:	2809883a 	mov	r4,r5
   82e2c:	3823883a 	mov	r17,r7
   82e30:	04003fc4 	movi	r16,255
   82e34:	003f2506 	br	82acc <__alt_data_end+0xfffad39c>
   82e38:	01c03fc4 	movi	r7,255
   82e3c:	31c02226 	beq	r6,r7,82ec8 <__addsf3+0x458>
   82e40:	00c7c83a 	sub	r3,zero,r3
   82e44:	21010034 	orhi	r4,r4,1024
   82e48:	01c006c4 	movi	r7,27
   82e4c:	38c03616 	blt	r7,r3,82f28 <__addsf3+0x4b8>
   82e50:	01c00804 	movi	r7,32
   82e54:	38cfc83a 	sub	r7,r7,r3
   82e58:	21ce983a 	sll	r7,r4,r7
   82e5c:	20c6d83a 	srl	r3,r4,r3
   82e60:	3808c03a 	cmpne	r4,r7,zero
   82e64:	1906b03a 	or	r3,r3,r4
   82e68:	1949883a 	add	r4,r3,r5
   82e6c:	3021883a 	mov	r16,r6
   82e70:	003f7106 	br	82c38 <__alt_data_end+0xfffad508>
   82e74:	283f1526 	beq	r5,zero,82acc <__alt_data_end+0xfffad39c>
   82e78:	2145c83a 	sub	r2,r4,r5
   82e7c:	10c1002c 	andhi	r3,r2,1024
   82e80:	183f4f26 	beq	r3,zero,82bc0 <__alt_data_end+0xfffad490>
   82e84:	2909c83a 	sub	r4,r5,r4
   82e88:	3823883a 	mov	r17,r7
   82e8c:	003f0f06 	br	82acc <__alt_data_end+0xfffad39c>
   82e90:	28001a26 	beq	r5,zero,82efc <__addsf3+0x48c>
   82e94:	2008d0fa 	srli	r4,r4,3
   82e98:	2080102c 	andhi	r2,r4,64
   82e9c:	10000526 	beq	r2,zero,82eb4 <__addsf3+0x444>
   82ea0:	280ad0fa 	srli	r5,r5,3
   82ea4:	2880102c 	andhi	r2,r5,64
   82ea8:	1000021e 	bne	r2,zero,82eb4 <__addsf3+0x444>
   82eac:	2809883a 	mov	r4,r5
   82eb0:	3823883a 	mov	r17,r7
   82eb4:	200890fa 	slli	r4,r4,3
   82eb8:	04003fc4 	movi	r16,255
   82ebc:	003f0306 	br	82acc <__alt_data_end+0xfffad39c>
   82ec0:	01c03fc4 	movi	r7,255
   82ec4:	31ffe01e 	bne	r6,r7,82e48 <__alt_data_end+0xfffad718>
   82ec8:	2809883a 	mov	r4,r5
   82ecc:	3021883a 	mov	r16,r6
   82ed0:	003efe06 	br	82acc <__alt_data_end+0xfffad39c>
   82ed4:	20001126 	beq	r4,zero,82f1c <__addsf3+0x4ac>
   82ed8:	28000826 	beq	r5,zero,82efc <__addsf3+0x48c>
   82edc:	2008d0fa 	srli	r4,r4,3
   82ee0:	2080102c 	andhi	r2,r4,64
   82ee4:	103ff326 	beq	r2,zero,82eb4 <__alt_data_end+0xfffad784>
   82ee8:	280ad0fa 	srli	r5,r5,3
   82eec:	2880102c 	andhi	r2,r5,64
   82ef0:	103ff01e 	bne	r2,zero,82eb4 <__alt_data_end+0xfffad784>
   82ef4:	2809883a 	mov	r4,r5
   82ef8:	003fee06 	br	82eb4 <__alt_data_end+0xfffad784>
   82efc:	04003fc4 	movi	r16,255
   82f00:	003ef206 	br	82acc <__alt_data_end+0xfffad39c>
   82f04:	01000044 	movi	r4,1
   82f08:	003f9706 	br	82d68 <__alt_data_end+0xfffad638>
   82f0c:	0005883a 	mov	r2,zero
   82f10:	003f3406 	br	82be4 <__alt_data_end+0xfffad4b4>
   82f14:	2809883a 	mov	r4,r5
   82f18:	003eec06 	br	82acc <__alt_data_end+0xfffad39c>
   82f1c:	2809883a 	mov	r4,r5
   82f20:	04003fc4 	movi	r16,255
   82f24:	003ee906 	br	82acc <__alt_data_end+0xfffad39c>
   82f28:	00c00044 	movi	r3,1
   82f2c:	003fce06 	br	82e68 <__alt_data_end+0xfffad738>
   82f30:	0005883a 	mov	r2,zero
   82f34:	003f4e06 	br	82c70 <__alt_data_end+0xfffad540>

00082f38 <__divsf3>:
   82f38:	defff504 	addi	sp,sp,-44
   82f3c:	200cd5fa 	srli	r6,r4,23
   82f40:	dcc00415 	stw	r19,16(sp)
   82f44:	2026d7fa 	srli	r19,r4,31
   82f48:	00c02034 	movhi	r3,128
   82f4c:	dd800715 	stw	r22,28(sp)
   82f50:	dd000515 	stw	r20,20(sp)
   82f54:	dc800315 	stw	r18,12(sp)
   82f58:	18ffffc4 	addi	r3,r3,-1
   82f5c:	dfc00a15 	stw	ra,40(sp)
   82f60:	df000915 	stw	fp,36(sp)
   82f64:	ddc00815 	stw	r23,32(sp)
   82f68:	dd400615 	stw	r21,24(sp)
   82f6c:	dc400215 	stw	r17,8(sp)
   82f70:	dc000115 	stw	r16,4(sp)
   82f74:	35003fcc 	andi	r20,r6,255
   82f78:	1924703a 	and	r18,r3,r4
   82f7c:	9d803fcc 	andi	r22,r19,255
   82f80:	a0005226 	beq	r20,zero,830cc <__divsf3+0x194>
   82f84:	00803fc4 	movi	r2,255
   82f88:	a0802e26 	beq	r20,r2,83044 <__divsf3+0x10c>
   82f8c:	91002034 	orhi	r4,r18,128
   82f90:	202490fa 	slli	r18,r4,3
   82f94:	a53fe044 	addi	r20,r20,-127
   82f98:	0021883a 	mov	r16,zero
   82f9c:	002f883a 	mov	r23,zero
   82fa0:	280cd5fa 	srli	r6,r5,23
   82fa4:	282ad7fa 	srli	r21,r5,31
   82fa8:	00c02034 	movhi	r3,128
   82fac:	18ffffc4 	addi	r3,r3,-1
   82fb0:	31803fcc 	andi	r6,r6,255
   82fb4:	1962703a 	and	r17,r3,r5
   82fb8:	af003fcc 	andi	fp,r21,255
   82fbc:	30004a26 	beq	r6,zero,830e8 <__divsf3+0x1b0>
   82fc0:	00803fc4 	movi	r2,255
   82fc4:	30804526 	beq	r6,r2,830dc <__divsf3+0x1a4>
   82fc8:	89402034 	orhi	r5,r17,128
   82fcc:	282290fa 	slli	r17,r5,3
   82fd0:	31bfe044 	addi	r6,r6,-127
   82fd4:	000b883a 	mov	r5,zero
   82fd8:	2c20b03a 	or	r16,r5,r16
   82fdc:	802090ba 	slli	r16,r16,2
   82fe0:	00800234 	movhi	r2,8
   82fe4:	108c0104 	addi	r2,r2,12292
   82fe8:	80a1883a 	add	r16,r16,r2
   82fec:	81000017 	ldw	r4,0(r16)
   82ff0:	9d46f03a 	xor	r3,r19,r21
   82ff4:	180f883a 	mov	r7,r3
   82ff8:	18803fcc 	andi	r2,r3,255
   82ffc:	a18dc83a 	sub	r6,r20,r6
   83000:	2000683a 	jmp	r4
   83004:	000831e8 	cmpgeui	zero,zero,8391
   83008:	0008306c 	andhi	zero,zero,8385
   8300c:	000831dc 	xori	zero,zero,8391
   83010:	00083058 	cmpnei	zero,zero,8385
   83014:	000831dc 	xori	zero,zero,8391
   83018:	000831b4 	movhi	zero,8390
   8301c:	000831dc 	xori	zero,zero,8391
   83020:	00083058 	cmpnei	zero,zero,8385
   83024:	0008306c 	andhi	zero,zero,8385
   83028:	0008306c 	andhi	zero,zero,8385
   8302c:	000831b4 	movhi	zero,8390
   83030:	00083058 	cmpnei	zero,zero,8385
   83034:	000832c8 	cmpgei	zero,zero,8395
   83038:	000832c8 	cmpgei	zero,zero,8395
   8303c:	000832c8 	cmpgei	zero,zero,8395
   83040:	0008327c 	xorhi	zero,zero,8393
   83044:	9000581e 	bne	r18,zero,831a8 <__divsf3+0x270>
   83048:	04000204 	movi	r16,8
   8304c:	05c00084 	movi	r23,2
   83050:	003fd306 	br	82fa0 <__alt_data_end+0xfffad870>
   83054:	0023883a 	mov	r17,zero
   83058:	e02d883a 	mov	r22,fp
   8305c:	282f883a 	mov	r23,r5
   83060:	00800084 	movi	r2,2
   83064:	b8808f1e 	bne	r23,r2,832a4 <__divsf3+0x36c>
   83068:	b005883a 	mov	r2,r22
   8306c:	11c0004c 	andi	r7,r2,1
   83070:	013fffc4 	movi	r4,-1
   83074:	000d883a 	mov	r6,zero
   83078:	21003fcc 	andi	r4,r4,255
   8307c:	200895fa 	slli	r4,r4,23
   83080:	38803fcc 	andi	r2,r7,255
   83084:	00c02034 	movhi	r3,128
   83088:	100497fa 	slli	r2,r2,31
   8308c:	18ffffc4 	addi	r3,r3,-1
   83090:	30c6703a 	and	r3,r6,r3
   83094:	1906b03a 	or	r3,r3,r4
   83098:	1884b03a 	or	r2,r3,r2
   8309c:	dfc00a17 	ldw	ra,40(sp)
   830a0:	df000917 	ldw	fp,36(sp)
   830a4:	ddc00817 	ldw	r23,32(sp)
   830a8:	dd800717 	ldw	r22,28(sp)
   830ac:	dd400617 	ldw	r21,24(sp)
   830b0:	dd000517 	ldw	r20,20(sp)
   830b4:	dcc00417 	ldw	r19,16(sp)
   830b8:	dc800317 	ldw	r18,12(sp)
   830bc:	dc400217 	ldw	r17,8(sp)
   830c0:	dc000117 	ldw	r16,4(sp)
   830c4:	dec00b04 	addi	sp,sp,44
   830c8:	f800283a 	ret
   830cc:	90002b1e 	bne	r18,zero,8317c <__divsf3+0x244>
   830d0:	04000104 	movi	r16,4
   830d4:	05c00044 	movi	r23,1
   830d8:	003fb106 	br	82fa0 <__alt_data_end+0xfffad870>
   830dc:	8800251e 	bne	r17,zero,83174 <__divsf3+0x23c>
   830e0:	01400084 	movi	r5,2
   830e4:	00000206 	br	830f0 <__divsf3+0x1b8>
   830e8:	88001a1e 	bne	r17,zero,83154 <__divsf3+0x21c>
   830ec:	01400044 	movi	r5,1
   830f0:	8160b03a 	or	r16,r16,r5
   830f4:	802090ba 	slli	r16,r16,2
   830f8:	00c00234 	movhi	r3,8
   830fc:	18cc4504 	addi	r3,r3,12564
   83100:	80e1883a 	add	r16,r16,r3
   83104:	80c00017 	ldw	r3,0(r16)
   83108:	9d44f03a 	xor	r2,r19,r21
   8310c:	a18dc83a 	sub	r6,r20,r6
   83110:	1800683a 	jmp	r3
   83114:	0008306c 	andhi	zero,zero,8385
   83118:	0008306c 	andhi	zero,zero,8385
   8311c:	000832b8 	rdprs	zero,zero,8394
   83120:	00083054 	movui	zero,8385
   83124:	000832b8 	rdprs	zero,zero,8394
   83128:	000831b4 	movhi	zero,8390
   8312c:	000832b8 	rdprs	zero,zero,8394
   83130:	00083054 	movui	zero,8385
   83134:	0008306c 	andhi	zero,zero,8385
   83138:	0008306c 	andhi	zero,zero,8385
   8313c:	000831b4 	movhi	zero,8390
   83140:	00083054 	movui	zero,8385
   83144:	000832c8 	cmpgei	zero,zero,8395
   83148:	000832c8 	cmpgei	zero,zero,8395
   8314c:	000832c8 	cmpgei	zero,zero,8395
   83150:	000832e0 	cmpeqi	zero,zero,8395
   83154:	8809883a 	mov	r4,r17
   83158:	00863c00 	call	863c0 <__clzsi2>
   8315c:	10fffec4 	addi	r3,r2,-5
   83160:	10801d84 	addi	r2,r2,118
   83164:	88e2983a 	sll	r17,r17,r3
   83168:	008dc83a 	sub	r6,zero,r2
   8316c:	000b883a 	mov	r5,zero
   83170:	003f9906 	br	82fd8 <__alt_data_end+0xfffad8a8>
   83174:	014000c4 	movi	r5,3
   83178:	003f9706 	br	82fd8 <__alt_data_end+0xfffad8a8>
   8317c:	9009883a 	mov	r4,r18
   83180:	d9400015 	stw	r5,0(sp)
   83184:	00863c00 	call	863c0 <__clzsi2>
   83188:	10fffec4 	addi	r3,r2,-5
   8318c:	11801d84 	addi	r6,r2,118
   83190:	90e4983a 	sll	r18,r18,r3
   83194:	01a9c83a 	sub	r20,zero,r6
   83198:	0021883a 	mov	r16,zero
   8319c:	002f883a 	mov	r23,zero
   831a0:	d9400017 	ldw	r5,0(sp)
   831a4:	003f7e06 	br	82fa0 <__alt_data_end+0xfffad870>
   831a8:	04000304 	movi	r16,12
   831ac:	05c000c4 	movi	r23,3
   831b0:	003f7b06 	br	82fa0 <__alt_data_end+0xfffad870>
   831b4:	01802034 	movhi	r6,128
   831b8:	000f883a 	mov	r7,zero
   831bc:	31bfffc4 	addi	r6,r6,-1
   831c0:	013fffc4 	movi	r4,-1
   831c4:	003fac06 	br	83078 <__alt_data_end+0xfffad948>
   831c8:	01400044 	movi	r5,1
   831cc:	2909c83a 	sub	r4,r5,r4
   831d0:	00c006c4 	movi	r3,27
   831d4:	19004b0e 	bge	r3,r4,83304 <__divsf3+0x3cc>
   831d8:	114e703a 	and	r7,r2,r5
   831dc:	0009883a 	mov	r4,zero
   831e0:	000d883a 	mov	r6,zero
   831e4:	003fa406 	br	83078 <__alt_data_end+0xfffad948>
   831e8:	9006917a 	slli	r3,r18,5
   831ec:	8822917a 	slli	r17,r17,5
   831f0:	1c40372e 	bgeu	r3,r17,832d0 <__divsf3+0x398>
   831f4:	31bfffc4 	addi	r6,r6,-1
   831f8:	010006c4 	movi	r4,27
   831fc:	000b883a 	mov	r5,zero
   83200:	180f883a 	mov	r7,r3
   83204:	294b883a 	add	r5,r5,r5
   83208:	18c7883a 	add	r3,r3,r3
   8320c:	38000116 	blt	r7,zero,83214 <__divsf3+0x2dc>
   83210:	1c400236 	bltu	r3,r17,8321c <__divsf3+0x2e4>
   83214:	1c47c83a 	sub	r3,r3,r17
   83218:	29400054 	ori	r5,r5,1
   8321c:	213fffc4 	addi	r4,r4,-1
   83220:	203ff71e 	bne	r4,zero,83200 <__alt_data_end+0xfffadad0>
   83224:	1806c03a 	cmpne	r3,r3,zero
   83228:	1962b03a 	or	r17,r3,r5
   8322c:	31001fc4 	addi	r4,r6,127
   83230:	013fe50e 	bge	zero,r4,831c8 <__alt_data_end+0xfffada98>
   83234:	88c001cc 	andi	r3,r17,7
   83238:	18000426 	beq	r3,zero,8324c <__divsf3+0x314>
   8323c:	88c003cc 	andi	r3,r17,15
   83240:	01400104 	movi	r5,4
   83244:	19400126 	beq	r3,r5,8324c <__divsf3+0x314>
   83248:	8963883a 	add	r17,r17,r5
   8324c:	88c2002c 	andhi	r3,r17,2048
   83250:	18000426 	beq	r3,zero,83264 <__divsf3+0x32c>
   83254:	00fe0034 	movhi	r3,63488
   83258:	18ffffc4 	addi	r3,r3,-1
   8325c:	31002004 	addi	r4,r6,128
   83260:	88e2703a 	and	r17,r17,r3
   83264:	00c03f84 	movi	r3,254
   83268:	193f8016 	blt	r3,r4,8306c <__alt_data_end+0xfffad93c>
   8326c:	880c91ba 	slli	r6,r17,6
   83270:	11c0004c 	andi	r7,r2,1
   83274:	300cd27a 	srli	r6,r6,9
   83278:	003f7f06 	br	83078 <__alt_data_end+0xfffad948>
   8327c:	9080102c 	andhi	r2,r18,64
   83280:	10000226 	beq	r2,zero,8328c <__divsf3+0x354>
   83284:	8880102c 	andhi	r2,r17,64
   83288:	10001826 	beq	r2,zero,832ec <__divsf3+0x3b4>
   8328c:	00802034 	movhi	r2,128
   83290:	91801034 	orhi	r6,r18,64
   83294:	10bfffc4 	addi	r2,r2,-1
   83298:	980f883a 	mov	r7,r19
   8329c:	308c703a 	and	r6,r6,r2
   832a0:	003fc706 	br	831c0 <__alt_data_end+0xfffada90>
   832a4:	008000c4 	movi	r2,3
   832a8:	b8802d26 	beq	r23,r2,83360 <__divsf3+0x428>
   832ac:	00c00044 	movi	r3,1
   832b0:	b005883a 	mov	r2,r22
   832b4:	b8ffdd1e 	bne	r23,r3,8322c <__alt_data_end+0xfffadafc>
   832b8:	11c0004c 	andi	r7,r2,1
   832bc:	0009883a 	mov	r4,zero
   832c0:	000d883a 	mov	r6,zero
   832c4:	003f6c06 	br	83078 <__alt_data_end+0xfffad948>
   832c8:	9023883a 	mov	r17,r18
   832cc:	003f6406 	br	83060 <__alt_data_end+0xfffad930>
   832d0:	1c47c83a 	sub	r3,r3,r17
   832d4:	01000684 	movi	r4,26
   832d8:	01400044 	movi	r5,1
   832dc:	003fc806 	br	83200 <__alt_data_end+0xfffadad0>
   832e0:	9080102c 	andhi	r2,r18,64
   832e4:	103fe926 	beq	r2,zero,8328c <__alt_data_end+0xfffadb5c>
   832e8:	0023883a 	mov	r17,zero
   832ec:	00802034 	movhi	r2,128
   832f0:	89801034 	orhi	r6,r17,64
   832f4:	10bfffc4 	addi	r2,r2,-1
   832f8:	a80f883a 	mov	r7,r21
   832fc:	308c703a 	and	r6,r6,r2
   83300:	003faf06 	br	831c0 <__alt_data_end+0xfffada90>
   83304:	01c00804 	movi	r7,32
   83308:	390fc83a 	sub	r7,r7,r4
   8330c:	89ce983a 	sll	r7,r17,r7
   83310:	890ad83a 	srl	r5,r17,r4
   83314:	380ec03a 	cmpne	r7,r7,zero
   83318:	29cab03a 	or	r5,r5,r7
   8331c:	28c001cc 	andi	r3,r5,7
   83320:	18000426 	beq	r3,zero,83334 <__divsf3+0x3fc>
   83324:	28c003cc 	andi	r3,r5,15
   83328:	01000104 	movi	r4,4
   8332c:	19000126 	beq	r3,r4,83334 <__divsf3+0x3fc>
   83330:	290b883a 	add	r5,r5,r4
   83334:	28c1002c 	andhi	r3,r5,1024
   83338:	18000426 	beq	r3,zero,8334c <__divsf3+0x414>
   8333c:	11c0004c 	andi	r7,r2,1
   83340:	01000044 	movi	r4,1
   83344:	000d883a 	mov	r6,zero
   83348:	003f4b06 	br	83078 <__alt_data_end+0xfffad948>
   8334c:	280a91ba 	slli	r5,r5,6
   83350:	11c0004c 	andi	r7,r2,1
   83354:	0009883a 	mov	r4,zero
   83358:	280cd27a 	srli	r6,r5,9
   8335c:	003f4606 	br	83078 <__alt_data_end+0xfffad948>
   83360:	00802034 	movhi	r2,128
   83364:	89801034 	orhi	r6,r17,64
   83368:	10bfffc4 	addi	r2,r2,-1
   8336c:	b00f883a 	mov	r7,r22
   83370:	308c703a 	and	r6,r6,r2
   83374:	003f9206 	br	831c0 <__alt_data_end+0xfffada90>

00083378 <__gesf2>:
   83378:	2004d5fa 	srli	r2,r4,23
   8337c:	2806d5fa 	srli	r3,r5,23
   83380:	01802034 	movhi	r6,128
   83384:	31bfffc4 	addi	r6,r6,-1
   83388:	10803fcc 	andi	r2,r2,255
   8338c:	01c03fc4 	movi	r7,255
   83390:	3110703a 	and	r8,r6,r4
   83394:	18c03fcc 	andi	r3,r3,255
   83398:	314c703a 	and	r6,r6,r5
   8339c:	2008d7fa 	srli	r4,r4,31
   833a0:	280ad7fa 	srli	r5,r5,31
   833a4:	11c01926 	beq	r2,r7,8340c <__gesf2+0x94>
   833a8:	01c03fc4 	movi	r7,255
   833ac:	19c00f26 	beq	r3,r7,833ec <__gesf2+0x74>
   833b0:	1000061e 	bne	r2,zero,833cc <__gesf2+0x54>
   833b4:	400f003a 	cmpeq	r7,r8,zero
   833b8:	1800071e 	bne	r3,zero,833d8 <__gesf2+0x60>
   833bc:	3000061e 	bne	r6,zero,833d8 <__gesf2+0x60>
   833c0:	0005883a 	mov	r2,zero
   833c4:	40000e1e 	bne	r8,zero,83400 <__gesf2+0x88>
   833c8:	f800283a 	ret
   833cc:	18000a1e 	bne	r3,zero,833f8 <__gesf2+0x80>
   833d0:	30000b26 	beq	r6,zero,83400 <__gesf2+0x88>
   833d4:	000f883a 	mov	r7,zero
   833d8:	29403fcc 	andi	r5,r5,255
   833dc:	38000726 	beq	r7,zero,833fc <__gesf2+0x84>
   833e0:	28000826 	beq	r5,zero,83404 <__gesf2+0x8c>
   833e4:	00800044 	movi	r2,1
   833e8:	f800283a 	ret
   833ec:	303ff026 	beq	r6,zero,833b0 <__alt_data_end+0xfffadc80>
   833f0:	00bfff84 	movi	r2,-2
   833f4:	f800283a 	ret
   833f8:	29403fcc 	andi	r5,r5,255
   833fc:	21400526 	beq	r4,r5,83414 <__gesf2+0x9c>
   83400:	203ff826 	beq	r4,zero,833e4 <__alt_data_end+0xfffadcb4>
   83404:	00bfffc4 	movi	r2,-1
   83408:	f800283a 	ret
   8340c:	403fe626 	beq	r8,zero,833a8 <__alt_data_end+0xfffadc78>
   83410:	003ff706 	br	833f0 <__alt_data_end+0xfffadcc0>
   83414:	18bffa16 	blt	r3,r2,83400 <__alt_data_end+0xfffadcd0>
   83418:	10c00216 	blt	r2,r3,83424 <__gesf2+0xac>
   8341c:	323ff836 	bltu	r6,r8,83400 <__alt_data_end+0xfffadcd0>
   83420:	4180022e 	bgeu	r8,r6,8342c <__gesf2+0xb4>
   83424:	203fef1e 	bne	r4,zero,833e4 <__alt_data_end+0xfffadcb4>
   83428:	003ff606 	br	83404 <__alt_data_end+0xfffadcd4>
   8342c:	0005883a 	mov	r2,zero
   83430:	f800283a 	ret

00083434 <__mulsf3>:
   83434:	defff504 	addi	sp,sp,-44
   83438:	dc000115 	stw	r16,4(sp)
   8343c:	2020d5fa 	srli	r16,r4,23
   83440:	dd400615 	stw	r21,24(sp)
   83444:	202ad7fa 	srli	r21,r4,31
   83448:	dc800315 	stw	r18,12(sp)
   8344c:	04802034 	movhi	r18,128
   83450:	df000915 	stw	fp,36(sp)
   83454:	dd000515 	stw	r20,20(sp)
   83458:	94bfffc4 	addi	r18,r18,-1
   8345c:	dfc00a15 	stw	ra,40(sp)
   83460:	ddc00815 	stw	r23,32(sp)
   83464:	dd800715 	stw	r22,28(sp)
   83468:	dcc00415 	stw	r19,16(sp)
   8346c:	dc400215 	stw	r17,8(sp)
   83470:	84003fcc 	andi	r16,r16,255
   83474:	9124703a 	and	r18,r18,r4
   83478:	a829883a 	mov	r20,r21
   8347c:	af003fcc 	andi	fp,r21,255
   83480:	80005426 	beq	r16,zero,835d4 <__mulsf3+0x1a0>
   83484:	00803fc4 	movi	r2,255
   83488:	80802f26 	beq	r16,r2,83548 <__mulsf3+0x114>
   8348c:	91002034 	orhi	r4,r18,128
   83490:	202490fa 	slli	r18,r4,3
   83494:	843fe044 	addi	r16,r16,-127
   83498:	0023883a 	mov	r17,zero
   8349c:	002f883a 	mov	r23,zero
   834a0:	2804d5fa 	srli	r2,r5,23
   834a4:	282cd7fa 	srli	r22,r5,31
   834a8:	01002034 	movhi	r4,128
   834ac:	213fffc4 	addi	r4,r4,-1
   834b0:	10803fcc 	andi	r2,r2,255
   834b4:	2166703a 	and	r19,r4,r5
   834b8:	b1803fcc 	andi	r6,r22,255
   834bc:	10004c26 	beq	r2,zero,835f0 <__mulsf3+0x1bc>
   834c0:	00c03fc4 	movi	r3,255
   834c4:	10c04726 	beq	r2,r3,835e4 <__mulsf3+0x1b0>
   834c8:	99002034 	orhi	r4,r19,128
   834cc:	202690fa 	slli	r19,r4,3
   834d0:	10bfe044 	addi	r2,r2,-127
   834d4:	0007883a 	mov	r3,zero
   834d8:	80a1883a 	add	r16,r16,r2
   834dc:	010003c4 	movi	r4,15
   834e0:	1c44b03a 	or	r2,r3,r17
   834e4:	b56af03a 	xor	r21,r22,r21
   834e8:	81c00044 	addi	r7,r16,1
   834ec:	20806b36 	bltu	r4,r2,8369c <__mulsf3+0x268>
   834f0:	100490ba 	slli	r2,r2,2
   834f4:	01000234 	movhi	r4,8
   834f8:	210d4204 	addi	r4,r4,13576
   834fc:	1105883a 	add	r2,r2,r4
   83500:	10800017 	ldw	r2,0(r2)
   83504:	1000683a 	jmp	r2
   83508:	0008369c 	xori	zero,zero,8410
   8350c:	0008355c 	xori	zero,zero,8405
   83510:	0008355c 	xori	zero,zero,8405
   83514:	00083558 	cmpnei	zero,zero,8405
   83518:	00083680 	call	8368 <__alt_mem_onchip_memory2_0-0x77c98>
   8351c:	00083680 	call	8368 <__alt_mem_onchip_memory2_0-0x77c98>
   83520:	0008366c 	andhi	zero,zero,8409
   83524:	00083558 	cmpnei	zero,zero,8405
   83528:	00083680 	call	8368 <__alt_mem_onchip_memory2_0-0x77c98>
   8352c:	0008366c 	andhi	zero,zero,8409
   83530:	00083680 	call	8368 <__alt_mem_onchip_memory2_0-0x77c98>
   83534:	00083558 	cmpnei	zero,zero,8405
   83538:	0008368c 	andi	zero,zero,8410
   8353c:	0008368c 	andi	zero,zero,8410
   83540:	0008368c 	andi	zero,zero,8410
   83544:	0008379c 	xori	zero,zero,8414
   83548:	90003b1e 	bne	r18,zero,83638 <__mulsf3+0x204>
   8354c:	04400204 	movi	r17,8
   83550:	05c00084 	movi	r23,2
   83554:	003fd206 	br	834a0 <__alt_data_end+0xfffadd70>
   83558:	302b883a 	mov	r21,r6
   8355c:	00800084 	movi	r2,2
   83560:	18802626 	beq	r3,r2,835fc <__mulsf3+0x1c8>
   83564:	008000c4 	movi	r2,3
   83568:	1880b826 	beq	r3,r2,8384c <__mulsf3+0x418>
   8356c:	00800044 	movi	r2,1
   83570:	1880af1e 	bne	r3,r2,83830 <__mulsf3+0x3fc>
   83574:	a829883a 	mov	r20,r21
   83578:	0007883a 	mov	r3,zero
   8357c:	0009883a 	mov	r4,zero
   83580:	18803fcc 	andi	r2,r3,255
   83584:	100695fa 	slli	r3,r2,23
   83588:	a0803fcc 	andi	r2,r20,255
   8358c:	100a97fa 	slli	r5,r2,31
   83590:	00802034 	movhi	r2,128
   83594:	10bfffc4 	addi	r2,r2,-1
   83598:	2084703a 	and	r2,r4,r2
   8359c:	10c4b03a 	or	r2,r2,r3
   835a0:	1144b03a 	or	r2,r2,r5
   835a4:	dfc00a17 	ldw	ra,40(sp)
   835a8:	df000917 	ldw	fp,36(sp)
   835ac:	ddc00817 	ldw	r23,32(sp)
   835b0:	dd800717 	ldw	r22,28(sp)
   835b4:	dd400617 	ldw	r21,24(sp)
   835b8:	dd000517 	ldw	r20,20(sp)
   835bc:	dcc00417 	ldw	r19,16(sp)
   835c0:	dc800317 	ldw	r18,12(sp)
   835c4:	dc400217 	ldw	r17,8(sp)
   835c8:	dc000117 	ldw	r16,4(sp)
   835cc:	dec00b04 	addi	sp,sp,44
   835d0:	f800283a 	ret
   835d4:	90000d1e 	bne	r18,zero,8360c <__mulsf3+0x1d8>
   835d8:	04400104 	movi	r17,4
   835dc:	05c00044 	movi	r23,1
   835e0:	003faf06 	br	834a0 <__alt_data_end+0xfffadd70>
   835e4:	9806c03a 	cmpne	r3,r19,zero
   835e8:	18c00084 	addi	r3,r3,2
   835ec:	003fba06 	br	834d8 <__alt_data_end+0xfffadda8>
   835f0:	9800141e 	bne	r19,zero,83644 <__mulsf3+0x210>
   835f4:	00c00044 	movi	r3,1
   835f8:	003fb706 	br	834d8 <__alt_data_end+0xfffadda8>
   835fc:	a829883a 	mov	r20,r21
   83600:	00ffffc4 	movi	r3,-1
   83604:	0009883a 	mov	r4,zero
   83608:	003fdd06 	br	83580 <__alt_data_end+0xfffade50>
   8360c:	9009883a 	mov	r4,r18
   83610:	d9400015 	stw	r5,0(sp)
   83614:	00863c00 	call	863c0 <__clzsi2>
   83618:	10fffec4 	addi	r3,r2,-5
   8361c:	10801d84 	addi	r2,r2,118
   83620:	90e4983a 	sll	r18,r18,r3
   83624:	00a1c83a 	sub	r16,zero,r2
   83628:	0023883a 	mov	r17,zero
   8362c:	002f883a 	mov	r23,zero
   83630:	d9400017 	ldw	r5,0(sp)
   83634:	003f9a06 	br	834a0 <__alt_data_end+0xfffadd70>
   83638:	04400304 	movi	r17,12
   8363c:	05c000c4 	movi	r23,3
   83640:	003f9706 	br	834a0 <__alt_data_end+0xfffadd70>
   83644:	9809883a 	mov	r4,r19
   83648:	d9800015 	stw	r6,0(sp)
   8364c:	00863c00 	call	863c0 <__clzsi2>
   83650:	10fffec4 	addi	r3,r2,-5
   83654:	10801d84 	addi	r2,r2,118
   83658:	98e6983a 	sll	r19,r19,r3
   8365c:	0085c83a 	sub	r2,zero,r2
   83660:	0007883a 	mov	r3,zero
   83664:	d9800017 	ldw	r6,0(sp)
   83668:	003f9b06 	br	834d8 <__alt_data_end+0xfffadda8>
   8366c:	01002034 	movhi	r4,128
   83670:	0029883a 	mov	r20,zero
   83674:	213fffc4 	addi	r4,r4,-1
   83678:	00ffffc4 	movi	r3,-1
   8367c:	003fc006 	br	83580 <__alt_data_end+0xfffade50>
   83680:	9027883a 	mov	r19,r18
   83684:	b807883a 	mov	r3,r23
   83688:	003fb406 	br	8355c <__alt_data_end+0xfffade2c>
   8368c:	9027883a 	mov	r19,r18
   83690:	e02b883a 	mov	r21,fp
   83694:	b807883a 	mov	r3,r23
   83698:	003fb006 	br	8355c <__alt_data_end+0xfffade2c>
   8369c:	9028d43a 	srli	r20,r18,16
   836a0:	982cd43a 	srli	r22,r19,16
   836a4:	94bfffcc 	andi	r18,r18,65535
   836a8:	9cffffcc 	andi	r19,r19,65535
   836ac:	980b883a 	mov	r5,r19
   836b0:	9009883a 	mov	r4,r18
   836b4:	d9c00015 	stw	r7,0(sp)
   836b8:	0082a480 	call	82a48 <__mulsi3>
   836bc:	a00b883a 	mov	r5,r20
   836c0:	9809883a 	mov	r4,r19
   836c4:	1023883a 	mov	r17,r2
   836c8:	0082a480 	call	82a48 <__mulsi3>
   836cc:	a009883a 	mov	r4,r20
   836d0:	b00b883a 	mov	r5,r22
   836d4:	1027883a 	mov	r19,r2
   836d8:	0082a480 	call	82a48 <__mulsi3>
   836dc:	b00b883a 	mov	r5,r22
   836e0:	9009883a 	mov	r4,r18
   836e4:	1029883a 	mov	r20,r2
   836e8:	0082a480 	call	82a48 <__mulsi3>
   836ec:	8806d43a 	srli	r3,r17,16
   836f0:	14c5883a 	add	r2,r2,r19
   836f4:	d9c00017 	ldw	r7,0(sp)
   836f8:	1885883a 	add	r2,r3,r2
   836fc:	14c0022e 	bgeu	r2,r19,83708 <__mulsf3+0x2d4>
   83700:	00c00074 	movhi	r3,1
   83704:	a0e9883a 	add	r20,r20,r3
   83708:	1026943a 	slli	r19,r2,16
   8370c:	8c7fffcc 	andi	r17,r17,65535
   83710:	1004d43a 	srli	r2,r2,16
   83714:	9c63883a 	add	r17,r19,r17
   83718:	882691ba 	slli	r19,r17,6
   8371c:	1505883a 	add	r2,r2,r20
   83720:	8822d6ba 	srli	r17,r17,26
   83724:	100891ba 	slli	r4,r2,6
   83728:	9826c03a 	cmpne	r19,r19,zero
   8372c:	9c62b03a 	or	r17,r19,r17
   83730:	8926b03a 	or	r19,r17,r4
   83734:	9882002c 	andhi	r2,r19,2048
   83738:	10000426 	beq	r2,zero,8374c <__mulsf3+0x318>
   8373c:	9804d07a 	srli	r2,r19,1
   83740:	9900004c 	andi	r4,r19,1
   83744:	3821883a 	mov	r16,r7
   83748:	1126b03a 	or	r19,r2,r4
   8374c:	80c01fc4 	addi	r3,r16,127
   83750:	00c0210e 	bge	zero,r3,837d8 <__mulsf3+0x3a4>
   83754:	988001cc 	andi	r2,r19,7
   83758:	10000426 	beq	r2,zero,8376c <__mulsf3+0x338>
   8375c:	988003cc 	andi	r2,r19,15
   83760:	01000104 	movi	r4,4
   83764:	11000126 	beq	r2,r4,8376c <__mulsf3+0x338>
   83768:	9927883a 	add	r19,r19,r4
   8376c:	9882002c 	andhi	r2,r19,2048
   83770:	10000426 	beq	r2,zero,83784 <__mulsf3+0x350>
   83774:	00be0034 	movhi	r2,63488
   83778:	10bfffc4 	addi	r2,r2,-1
   8377c:	80c02004 	addi	r3,r16,128
   83780:	98a6703a 	and	r19,r19,r2
   83784:	00803f84 	movi	r2,254
   83788:	10ff9c16 	blt	r2,r3,835fc <__alt_data_end+0xfffadecc>
   8378c:	980891ba 	slli	r4,r19,6
   83790:	a829883a 	mov	r20,r21
   83794:	2008d27a 	srli	r4,r4,9
   83798:	003f7906 	br	83580 <__alt_data_end+0xfffade50>
   8379c:	9080102c 	andhi	r2,r18,64
   837a0:	10000826 	beq	r2,zero,837c4 <__mulsf3+0x390>
   837a4:	9880102c 	andhi	r2,r19,64
   837a8:	1000061e 	bne	r2,zero,837c4 <__mulsf3+0x390>
   837ac:	00802034 	movhi	r2,128
   837b0:	99001034 	orhi	r4,r19,64
   837b4:	10bfffc4 	addi	r2,r2,-1
   837b8:	b029883a 	mov	r20,r22
   837bc:	2088703a 	and	r4,r4,r2
   837c0:	003fad06 	br	83678 <__alt_data_end+0xfffadf48>
   837c4:	00802034 	movhi	r2,128
   837c8:	91001034 	orhi	r4,r18,64
   837cc:	10bfffc4 	addi	r2,r2,-1
   837d0:	2088703a 	and	r4,r4,r2
   837d4:	003fa806 	br	83678 <__alt_data_end+0xfffadf48>
   837d8:	00800044 	movi	r2,1
   837dc:	10c7c83a 	sub	r3,r2,r3
   837e0:	008006c4 	movi	r2,27
   837e4:	10ff6316 	blt	r2,r3,83574 <__alt_data_end+0xfffade44>
   837e8:	00800804 	movi	r2,32
   837ec:	10c5c83a 	sub	r2,r2,r3
   837f0:	9884983a 	sll	r2,r19,r2
   837f4:	98c6d83a 	srl	r3,r19,r3
   837f8:	1004c03a 	cmpne	r2,r2,zero
   837fc:	1884b03a 	or	r2,r3,r2
   83800:	10c001cc 	andi	r3,r2,7
   83804:	18000426 	beq	r3,zero,83818 <__mulsf3+0x3e4>
   83808:	10c003cc 	andi	r3,r2,15
   8380c:	01000104 	movi	r4,4
   83810:	19000126 	beq	r3,r4,83818 <__mulsf3+0x3e4>
   83814:	1105883a 	add	r2,r2,r4
   83818:	10c1002c 	andhi	r3,r2,1024
   8381c:	18000626 	beq	r3,zero,83838 <__mulsf3+0x404>
   83820:	a829883a 	mov	r20,r21
   83824:	00c00044 	movi	r3,1
   83828:	0009883a 	mov	r4,zero
   8382c:	003f5406 	br	83580 <__alt_data_end+0xfffade50>
   83830:	3821883a 	mov	r16,r7
   83834:	003fc506 	br	8374c <__alt_data_end+0xfffae01c>
   83838:	100491ba 	slli	r2,r2,6
   8383c:	a829883a 	mov	r20,r21
   83840:	0007883a 	mov	r3,zero
   83844:	1008d27a 	srli	r4,r2,9
   83848:	003f4d06 	br	83580 <__alt_data_end+0xfffade50>
   8384c:	00802034 	movhi	r2,128
   83850:	99001034 	orhi	r4,r19,64
   83854:	10bfffc4 	addi	r2,r2,-1
   83858:	a829883a 	mov	r20,r21
   8385c:	2088703a 	and	r4,r4,r2
   83860:	003f8506 	br	83678 <__alt_data_end+0xfffadf48>

00083864 <__fixsfsi>:
   83864:	200ad5fa 	srli	r5,r4,23
   83868:	00c02034 	movhi	r3,128
   8386c:	18ffffc4 	addi	r3,r3,-1
   83870:	29403fcc 	andi	r5,r5,255
   83874:	00801f84 	movi	r2,126
   83878:	1906703a 	and	r3,r3,r4
   8387c:	2008d7fa 	srli	r4,r4,31
   83880:	11400e0e 	bge	r2,r5,838bc <__fixsfsi+0x58>
   83884:	00802744 	movi	r2,157
   83888:	11400816 	blt	r2,r5,838ac <__fixsfsi+0x48>
   8388c:	00802544 	movi	r2,149
   83890:	18c02034 	orhi	r3,r3,128
   83894:	11400b0e 	bge	r2,r5,838c4 <__fixsfsi+0x60>
   83898:	28bfda84 	addi	r2,r5,-150
   8389c:	1884983a 	sll	r2,r3,r2
   838a0:	20000726 	beq	r4,zero,838c0 <__fixsfsi+0x5c>
   838a4:	0085c83a 	sub	r2,zero,r2
   838a8:	f800283a 	ret
   838ac:	00a00034 	movhi	r2,32768
   838b0:	10bfffc4 	addi	r2,r2,-1
   838b4:	2085883a 	add	r2,r4,r2
   838b8:	f800283a 	ret
   838bc:	0005883a 	mov	r2,zero
   838c0:	f800283a 	ret
   838c4:	00802584 	movi	r2,150
   838c8:	1145c83a 	sub	r2,r2,r5
   838cc:	1884d83a 	srl	r2,r3,r2
   838d0:	003ff306 	br	838a0 <__alt_data_end+0xfffae170>

000838d4 <__floatsisf>:
   838d4:	defffd04 	addi	sp,sp,-12
   838d8:	dfc00215 	stw	ra,8(sp)
   838dc:	dc400115 	stw	r17,4(sp)
   838e0:	dc000015 	stw	r16,0(sp)
   838e4:	20003526 	beq	r4,zero,839bc <__floatsisf+0xe8>
   838e8:	2021883a 	mov	r16,r4
   838ec:	2022d7fa 	srli	r17,r4,31
   838f0:	20003616 	blt	r4,zero,839cc <__floatsisf+0xf8>
   838f4:	8009883a 	mov	r4,r16
   838f8:	00863c00 	call	863c0 <__clzsi2>
   838fc:	00c02784 	movi	r3,158
   83900:	1887c83a 	sub	r3,r3,r2
   83904:	01002584 	movi	r4,150
   83908:	20c01416 	blt	r4,r3,8395c <__floatsisf+0x88>
   8390c:	20c9c83a 	sub	r4,r4,r3
   83910:	8120983a 	sll	r16,r16,r4
   83914:	00802034 	movhi	r2,128
   83918:	10bfffc4 	addi	r2,r2,-1
   8391c:	8809883a 	mov	r4,r17
   83920:	80a0703a 	and	r16,r16,r2
   83924:	18803fcc 	andi	r2,r3,255
   83928:	100695fa 	slli	r3,r2,23
   8392c:	20803fcc 	andi	r2,r4,255
   83930:	100897fa 	slli	r4,r2,31
   83934:	00802034 	movhi	r2,128
   83938:	10bfffc4 	addi	r2,r2,-1
   8393c:	8084703a 	and	r2,r16,r2
   83940:	10c4b03a 	or	r2,r2,r3
   83944:	1104b03a 	or	r2,r2,r4
   83948:	dfc00217 	ldw	ra,8(sp)
   8394c:	dc400117 	ldw	r17,4(sp)
   83950:	dc000017 	ldw	r16,0(sp)
   83954:	dec00304 	addi	sp,sp,12
   83958:	f800283a 	ret
   8395c:	01002644 	movi	r4,153
   83960:	20c01c16 	blt	r4,r3,839d4 <__floatsisf+0x100>
   83964:	20c9c83a 	sub	r4,r4,r3
   83968:	8120983a 	sll	r16,r16,r4
   8396c:	013f0034 	movhi	r4,64512
   83970:	213fffc4 	addi	r4,r4,-1
   83974:	814001cc 	andi	r5,r16,7
   83978:	8108703a 	and	r4,r16,r4
   8397c:	28000426 	beq	r5,zero,83990 <__floatsisf+0xbc>
   83980:	840003cc 	andi	r16,r16,15
   83984:	01400104 	movi	r5,4
   83988:	81400126 	beq	r16,r5,83990 <__floatsisf+0xbc>
   8398c:	2149883a 	add	r4,r4,r5
   83990:	2141002c 	andhi	r5,r4,1024
   83994:	28000526 	beq	r5,zero,839ac <__floatsisf+0xd8>
   83998:	00c027c4 	movi	r3,159
   8399c:	1887c83a 	sub	r3,r3,r2
   839a0:	00bf0034 	movhi	r2,64512
   839a4:	10bfffc4 	addi	r2,r2,-1
   839a8:	2088703a 	and	r4,r4,r2
   839ac:	202091ba 	slli	r16,r4,6
   839b0:	8809883a 	mov	r4,r17
   839b4:	8020d27a 	srli	r16,r16,9
   839b8:	003fda06 	br	83924 <__alt_data_end+0xfffae1f4>
   839bc:	0009883a 	mov	r4,zero
   839c0:	0007883a 	mov	r3,zero
   839c4:	0021883a 	mov	r16,zero
   839c8:	003fd606 	br	83924 <__alt_data_end+0xfffae1f4>
   839cc:	0121c83a 	sub	r16,zero,r4
   839d0:	003fc806 	br	838f4 <__alt_data_end+0xfffae1c4>
   839d4:	01002e44 	movi	r4,185
   839d8:	20c9c83a 	sub	r4,r4,r3
   839dc:	01400144 	movi	r5,5
   839e0:	8108983a 	sll	r4,r16,r4
   839e4:	288bc83a 	sub	r5,r5,r2
   839e8:	8160d83a 	srl	r16,r16,r5
   839ec:	2008c03a 	cmpne	r4,r4,zero
   839f0:	8120b03a 	or	r16,r16,r4
   839f4:	003fdd06 	br	8396c <__alt_data_end+0xfffae23c>

000839f8 <__adddf3>:
   839f8:	02c00434 	movhi	r11,16
   839fc:	5affffc4 	addi	r11,r11,-1
   83a00:	2806d7fa 	srli	r3,r5,31
   83a04:	2ad4703a 	and	r10,r5,r11
   83a08:	3ad2703a 	and	r9,r7,r11
   83a0c:	3804d53a 	srli	r2,r7,20
   83a10:	3018d77a 	srli	r12,r6,29
   83a14:	280ad53a 	srli	r5,r5,20
   83a18:	501490fa 	slli	r10,r10,3
   83a1c:	2010d77a 	srli	r8,r4,29
   83a20:	481290fa 	slli	r9,r9,3
   83a24:	380ed7fa 	srli	r7,r7,31
   83a28:	defffb04 	addi	sp,sp,-20
   83a2c:	dc800215 	stw	r18,8(sp)
   83a30:	dc400115 	stw	r17,4(sp)
   83a34:	dc000015 	stw	r16,0(sp)
   83a38:	dfc00415 	stw	ra,16(sp)
   83a3c:	dcc00315 	stw	r19,12(sp)
   83a40:	1c803fcc 	andi	r18,r3,255
   83a44:	2c01ffcc 	andi	r16,r5,2047
   83a48:	5210b03a 	or	r8,r10,r8
   83a4c:	202290fa 	slli	r17,r4,3
   83a50:	1081ffcc 	andi	r2,r2,2047
   83a54:	4b12b03a 	or	r9,r9,r12
   83a58:	300c90fa 	slli	r6,r6,3
   83a5c:	91c07526 	beq	r18,r7,83c34 <__adddf3+0x23c>
   83a60:	8087c83a 	sub	r3,r16,r2
   83a64:	00c0ab0e 	bge	zero,r3,83d14 <__adddf3+0x31c>
   83a68:	10002a1e 	bne	r2,zero,83b14 <__adddf3+0x11c>
   83a6c:	4984b03a 	or	r2,r9,r6
   83a70:	1000961e 	bne	r2,zero,83ccc <__adddf3+0x2d4>
   83a74:	888001cc 	andi	r2,r17,7
   83a78:	10000726 	beq	r2,zero,83a98 <__adddf3+0xa0>
   83a7c:	888003cc 	andi	r2,r17,15
   83a80:	00c00104 	movi	r3,4
   83a84:	10c00426 	beq	r2,r3,83a98 <__adddf3+0xa0>
   83a88:	88c7883a 	add	r3,r17,r3
   83a8c:	1c63803a 	cmpltu	r17,r3,r17
   83a90:	4451883a 	add	r8,r8,r17
   83a94:	1823883a 	mov	r17,r3
   83a98:	4080202c 	andhi	r2,r8,128
   83a9c:	10005926 	beq	r2,zero,83c04 <__adddf3+0x20c>
   83aa0:	84000044 	addi	r16,r16,1
   83aa4:	0081ffc4 	movi	r2,2047
   83aa8:	8080ba26 	beq	r16,r2,83d94 <__adddf3+0x39c>
   83aac:	00bfe034 	movhi	r2,65408
   83ab0:	10bfffc4 	addi	r2,r2,-1
   83ab4:	4090703a 	and	r8,r8,r2
   83ab8:	4004977a 	slli	r2,r8,29
   83abc:	4010927a 	slli	r8,r8,9
   83ac0:	8822d0fa 	srli	r17,r17,3
   83ac4:	8401ffcc 	andi	r16,r16,2047
   83ac8:	4010d33a 	srli	r8,r8,12
   83acc:	9007883a 	mov	r3,r18
   83ad0:	1444b03a 	or	r2,r2,r17
   83ad4:	8401ffcc 	andi	r16,r16,2047
   83ad8:	8020953a 	slli	r16,r16,20
   83adc:	18c03fcc 	andi	r3,r3,255
   83ae0:	01000434 	movhi	r4,16
   83ae4:	213fffc4 	addi	r4,r4,-1
   83ae8:	180697fa 	slli	r3,r3,31
   83aec:	4110703a 	and	r8,r8,r4
   83af0:	4410b03a 	or	r8,r8,r16
   83af4:	40c6b03a 	or	r3,r8,r3
   83af8:	dfc00417 	ldw	ra,16(sp)
   83afc:	dcc00317 	ldw	r19,12(sp)
   83b00:	dc800217 	ldw	r18,8(sp)
   83b04:	dc400117 	ldw	r17,4(sp)
   83b08:	dc000017 	ldw	r16,0(sp)
   83b0c:	dec00504 	addi	sp,sp,20
   83b10:	f800283a 	ret
   83b14:	0081ffc4 	movi	r2,2047
   83b18:	80bfd626 	beq	r16,r2,83a74 <__alt_data_end+0xfffae344>
   83b1c:	4a402034 	orhi	r9,r9,128
   83b20:	00800e04 	movi	r2,56
   83b24:	10c09f16 	blt	r2,r3,83da4 <__adddf3+0x3ac>
   83b28:	008007c4 	movi	r2,31
   83b2c:	10c0c216 	blt	r2,r3,83e38 <__adddf3+0x440>
   83b30:	00800804 	movi	r2,32
   83b34:	10c5c83a 	sub	r2,r2,r3
   83b38:	488a983a 	sll	r5,r9,r2
   83b3c:	30c8d83a 	srl	r4,r6,r3
   83b40:	3084983a 	sll	r2,r6,r2
   83b44:	48c6d83a 	srl	r3,r9,r3
   83b48:	290cb03a 	or	r6,r5,r4
   83b4c:	1004c03a 	cmpne	r2,r2,zero
   83b50:	308cb03a 	or	r6,r6,r2
   83b54:	898dc83a 	sub	r6,r17,r6
   83b58:	89a3803a 	cmpltu	r17,r17,r6
   83b5c:	40d1c83a 	sub	r8,r8,r3
   83b60:	4451c83a 	sub	r8,r8,r17
   83b64:	3023883a 	mov	r17,r6
   83b68:	4080202c 	andhi	r2,r8,128
   83b6c:	10002326 	beq	r2,zero,83bfc <__adddf3+0x204>
   83b70:	04c02034 	movhi	r19,128
   83b74:	9cffffc4 	addi	r19,r19,-1
   83b78:	44e6703a 	and	r19,r8,r19
   83b7c:	98007626 	beq	r19,zero,83d58 <__adddf3+0x360>
   83b80:	9809883a 	mov	r4,r19
   83b84:	00863c00 	call	863c0 <__clzsi2>
   83b88:	10fffe04 	addi	r3,r2,-8
   83b8c:	010007c4 	movi	r4,31
   83b90:	20c07716 	blt	r4,r3,83d70 <__adddf3+0x378>
   83b94:	00800804 	movi	r2,32
   83b98:	10c5c83a 	sub	r2,r2,r3
   83b9c:	8884d83a 	srl	r2,r17,r2
   83ba0:	98d0983a 	sll	r8,r19,r3
   83ba4:	88e2983a 	sll	r17,r17,r3
   83ba8:	1204b03a 	or	r2,r2,r8
   83bac:	1c007416 	blt	r3,r16,83d80 <__adddf3+0x388>
   83bb0:	1c21c83a 	sub	r16,r3,r16
   83bb4:	82000044 	addi	r8,r16,1
   83bb8:	00c007c4 	movi	r3,31
   83bbc:	1a009116 	blt	r3,r8,83e04 <__adddf3+0x40c>
   83bc0:	00c00804 	movi	r3,32
   83bc4:	1a07c83a 	sub	r3,r3,r8
   83bc8:	8a08d83a 	srl	r4,r17,r8
   83bcc:	88e2983a 	sll	r17,r17,r3
   83bd0:	10c6983a 	sll	r3,r2,r3
   83bd4:	1210d83a 	srl	r8,r2,r8
   83bd8:	8804c03a 	cmpne	r2,r17,zero
   83bdc:	1906b03a 	or	r3,r3,r4
   83be0:	18a2b03a 	or	r17,r3,r2
   83be4:	0021883a 	mov	r16,zero
   83be8:	003fa206 	br	83a74 <__alt_data_end+0xfffae344>
   83bec:	1890b03a 	or	r8,r3,r2
   83bf0:	40017d26 	beq	r8,zero,841e8 <__adddf3+0x7f0>
   83bf4:	1011883a 	mov	r8,r2
   83bf8:	1823883a 	mov	r17,r3
   83bfc:	888001cc 	andi	r2,r17,7
   83c00:	103f9e1e 	bne	r2,zero,83a7c <__alt_data_end+0xfffae34c>
   83c04:	4004977a 	slli	r2,r8,29
   83c08:	8822d0fa 	srli	r17,r17,3
   83c0c:	4010d0fa 	srli	r8,r8,3
   83c10:	9007883a 	mov	r3,r18
   83c14:	1444b03a 	or	r2,r2,r17
   83c18:	0101ffc4 	movi	r4,2047
   83c1c:	81002426 	beq	r16,r4,83cb0 <__adddf3+0x2b8>
   83c20:	8120703a 	and	r16,r16,r4
   83c24:	01000434 	movhi	r4,16
   83c28:	213fffc4 	addi	r4,r4,-1
   83c2c:	4110703a 	and	r8,r8,r4
   83c30:	003fa806 	br	83ad4 <__alt_data_end+0xfffae3a4>
   83c34:	8089c83a 	sub	r4,r16,r2
   83c38:	01005e0e 	bge	zero,r4,83db4 <__adddf3+0x3bc>
   83c3c:	10002b26 	beq	r2,zero,83cec <__adddf3+0x2f4>
   83c40:	0081ffc4 	movi	r2,2047
   83c44:	80bf8b26 	beq	r16,r2,83a74 <__alt_data_end+0xfffae344>
   83c48:	4a402034 	orhi	r9,r9,128
   83c4c:	00800e04 	movi	r2,56
   83c50:	1100a40e 	bge	r2,r4,83ee4 <__adddf3+0x4ec>
   83c54:	498cb03a 	or	r6,r9,r6
   83c58:	300ac03a 	cmpne	r5,r6,zero
   83c5c:	0013883a 	mov	r9,zero
   83c60:	2c4b883a 	add	r5,r5,r17
   83c64:	2c63803a 	cmpltu	r17,r5,r17
   83c68:	4a11883a 	add	r8,r9,r8
   83c6c:	8a11883a 	add	r8,r17,r8
   83c70:	2823883a 	mov	r17,r5
   83c74:	4080202c 	andhi	r2,r8,128
   83c78:	103fe026 	beq	r2,zero,83bfc <__alt_data_end+0xfffae4cc>
   83c7c:	84000044 	addi	r16,r16,1
   83c80:	0081ffc4 	movi	r2,2047
   83c84:	8080d226 	beq	r16,r2,83fd0 <__adddf3+0x5d8>
   83c88:	00bfe034 	movhi	r2,65408
   83c8c:	10bfffc4 	addi	r2,r2,-1
   83c90:	4090703a 	and	r8,r8,r2
   83c94:	880ad07a 	srli	r5,r17,1
   83c98:	400897fa 	slli	r4,r8,31
   83c9c:	88c0004c 	andi	r3,r17,1
   83ca0:	28e2b03a 	or	r17,r5,r3
   83ca4:	4010d07a 	srli	r8,r8,1
   83ca8:	2462b03a 	or	r17,r4,r17
   83cac:	003f7106 	br	83a74 <__alt_data_end+0xfffae344>
   83cb0:	4088b03a 	or	r4,r8,r2
   83cb4:	20014526 	beq	r4,zero,841cc <__adddf3+0x7d4>
   83cb8:	01000434 	movhi	r4,16
   83cbc:	42000234 	orhi	r8,r8,8
   83cc0:	213fffc4 	addi	r4,r4,-1
   83cc4:	4110703a 	and	r8,r8,r4
   83cc8:	003f8206 	br	83ad4 <__alt_data_end+0xfffae3a4>
   83ccc:	18ffffc4 	addi	r3,r3,-1
   83cd0:	1800491e 	bne	r3,zero,83df8 <__adddf3+0x400>
   83cd4:	898bc83a 	sub	r5,r17,r6
   83cd8:	8963803a 	cmpltu	r17,r17,r5
   83cdc:	4251c83a 	sub	r8,r8,r9
   83ce0:	4451c83a 	sub	r8,r8,r17
   83ce4:	2823883a 	mov	r17,r5
   83ce8:	003f9f06 	br	83b68 <__alt_data_end+0xfffae438>
   83cec:	4984b03a 	or	r2,r9,r6
   83cf0:	103f6026 	beq	r2,zero,83a74 <__alt_data_end+0xfffae344>
   83cf4:	213fffc4 	addi	r4,r4,-1
   83cf8:	2000931e 	bne	r4,zero,83f48 <__adddf3+0x550>
   83cfc:	898d883a 	add	r6,r17,r6
   83d00:	3463803a 	cmpltu	r17,r6,r17
   83d04:	4251883a 	add	r8,r8,r9
   83d08:	8a11883a 	add	r8,r17,r8
   83d0c:	3023883a 	mov	r17,r6
   83d10:	003fd806 	br	83c74 <__alt_data_end+0xfffae544>
   83d14:	1800541e 	bne	r3,zero,83e68 <__adddf3+0x470>
   83d18:	80800044 	addi	r2,r16,1
   83d1c:	1081ffcc 	andi	r2,r2,2047
   83d20:	00c00044 	movi	r3,1
   83d24:	1880a00e 	bge	r3,r2,83fa8 <__adddf3+0x5b0>
   83d28:	8989c83a 	sub	r4,r17,r6
   83d2c:	8905803a 	cmpltu	r2,r17,r4
   83d30:	4267c83a 	sub	r19,r8,r9
   83d34:	98a7c83a 	sub	r19,r19,r2
   83d38:	9880202c 	andhi	r2,r19,128
   83d3c:	10006326 	beq	r2,zero,83ecc <__adddf3+0x4d4>
   83d40:	3463c83a 	sub	r17,r6,r17
   83d44:	4a07c83a 	sub	r3,r9,r8
   83d48:	344d803a 	cmpltu	r6,r6,r17
   83d4c:	19a7c83a 	sub	r19,r3,r6
   83d50:	3825883a 	mov	r18,r7
   83d54:	983f8a1e 	bne	r19,zero,83b80 <__alt_data_end+0xfffae450>
   83d58:	8809883a 	mov	r4,r17
   83d5c:	00863c00 	call	863c0 <__clzsi2>
   83d60:	10800804 	addi	r2,r2,32
   83d64:	10fffe04 	addi	r3,r2,-8
   83d68:	010007c4 	movi	r4,31
   83d6c:	20ff890e 	bge	r4,r3,83b94 <__alt_data_end+0xfffae464>
   83d70:	10bff604 	addi	r2,r2,-40
   83d74:	8884983a 	sll	r2,r17,r2
   83d78:	0023883a 	mov	r17,zero
   83d7c:	1c3f8c0e 	bge	r3,r16,83bb0 <__alt_data_end+0xfffae480>
   83d80:	023fe034 	movhi	r8,65408
   83d84:	423fffc4 	addi	r8,r8,-1
   83d88:	80e1c83a 	sub	r16,r16,r3
   83d8c:	1210703a 	and	r8,r2,r8
   83d90:	003f3806 	br	83a74 <__alt_data_end+0xfffae344>
   83d94:	9007883a 	mov	r3,r18
   83d98:	0011883a 	mov	r8,zero
   83d9c:	0005883a 	mov	r2,zero
   83da0:	003f4c06 	br	83ad4 <__alt_data_end+0xfffae3a4>
   83da4:	498cb03a 	or	r6,r9,r6
   83da8:	300cc03a 	cmpne	r6,r6,zero
   83dac:	0007883a 	mov	r3,zero
   83db0:	003f6806 	br	83b54 <__alt_data_end+0xfffae424>
   83db4:	20009c1e 	bne	r4,zero,84028 <__adddf3+0x630>
   83db8:	80800044 	addi	r2,r16,1
   83dbc:	1141ffcc 	andi	r5,r2,2047
   83dc0:	01000044 	movi	r4,1
   83dc4:	2140670e 	bge	r4,r5,83f64 <__adddf3+0x56c>
   83dc8:	0101ffc4 	movi	r4,2047
   83dcc:	11007f26 	beq	r2,r4,83fcc <__adddf3+0x5d4>
   83dd0:	898d883a 	add	r6,r17,r6
   83dd4:	4247883a 	add	r3,r8,r9
   83dd8:	3451803a 	cmpltu	r8,r6,r17
   83ddc:	40d1883a 	add	r8,r8,r3
   83de0:	402297fa 	slli	r17,r8,31
   83de4:	300cd07a 	srli	r6,r6,1
   83de8:	4010d07a 	srli	r8,r8,1
   83dec:	1021883a 	mov	r16,r2
   83df0:	89a2b03a 	or	r17,r17,r6
   83df4:	003f1f06 	br	83a74 <__alt_data_end+0xfffae344>
   83df8:	0081ffc4 	movi	r2,2047
   83dfc:	80bf481e 	bne	r16,r2,83b20 <__alt_data_end+0xfffae3f0>
   83e00:	003f1c06 	br	83a74 <__alt_data_end+0xfffae344>
   83e04:	843ff844 	addi	r16,r16,-31
   83e08:	01000804 	movi	r4,32
   83e0c:	1406d83a 	srl	r3,r2,r16
   83e10:	41005026 	beq	r8,r4,83f54 <__adddf3+0x55c>
   83e14:	01001004 	movi	r4,64
   83e18:	2211c83a 	sub	r8,r4,r8
   83e1c:	1204983a 	sll	r2,r2,r8
   83e20:	88a2b03a 	or	r17,r17,r2
   83e24:	8822c03a 	cmpne	r17,r17,zero
   83e28:	1c62b03a 	or	r17,r3,r17
   83e2c:	0011883a 	mov	r8,zero
   83e30:	0021883a 	mov	r16,zero
   83e34:	003f7106 	br	83bfc <__alt_data_end+0xfffae4cc>
   83e38:	193ff804 	addi	r4,r3,-32
   83e3c:	00800804 	movi	r2,32
   83e40:	4908d83a 	srl	r4,r9,r4
   83e44:	18804526 	beq	r3,r2,83f5c <__adddf3+0x564>
   83e48:	00801004 	movi	r2,64
   83e4c:	10c5c83a 	sub	r2,r2,r3
   83e50:	4886983a 	sll	r3,r9,r2
   83e54:	198cb03a 	or	r6,r3,r6
   83e58:	300cc03a 	cmpne	r6,r6,zero
   83e5c:	218cb03a 	or	r6,r4,r6
   83e60:	0007883a 	mov	r3,zero
   83e64:	003f3b06 	br	83b54 <__alt_data_end+0xfffae424>
   83e68:	80002a26 	beq	r16,zero,83f14 <__adddf3+0x51c>
   83e6c:	0101ffc4 	movi	r4,2047
   83e70:	11006826 	beq	r2,r4,84014 <__adddf3+0x61c>
   83e74:	00c7c83a 	sub	r3,zero,r3
   83e78:	42002034 	orhi	r8,r8,128
   83e7c:	01000e04 	movi	r4,56
   83e80:	20c07c16 	blt	r4,r3,84074 <__adddf3+0x67c>
   83e84:	010007c4 	movi	r4,31
   83e88:	20c0da16 	blt	r4,r3,841f4 <__adddf3+0x7fc>
   83e8c:	01000804 	movi	r4,32
   83e90:	20c9c83a 	sub	r4,r4,r3
   83e94:	4114983a 	sll	r10,r8,r4
   83e98:	88cad83a 	srl	r5,r17,r3
   83e9c:	8908983a 	sll	r4,r17,r4
   83ea0:	40c6d83a 	srl	r3,r8,r3
   83ea4:	5162b03a 	or	r17,r10,r5
   83ea8:	2008c03a 	cmpne	r4,r4,zero
   83eac:	8922b03a 	or	r17,r17,r4
   83eb0:	3463c83a 	sub	r17,r6,r17
   83eb4:	48c7c83a 	sub	r3,r9,r3
   83eb8:	344d803a 	cmpltu	r6,r6,r17
   83ebc:	1991c83a 	sub	r8,r3,r6
   83ec0:	1021883a 	mov	r16,r2
   83ec4:	3825883a 	mov	r18,r7
   83ec8:	003f2706 	br	83b68 <__alt_data_end+0xfffae438>
   83ecc:	24d0b03a 	or	r8,r4,r19
   83ed0:	40001b1e 	bne	r8,zero,83f40 <__adddf3+0x548>
   83ed4:	0005883a 	mov	r2,zero
   83ed8:	0007883a 	mov	r3,zero
   83edc:	0021883a 	mov	r16,zero
   83ee0:	003f4d06 	br	83c18 <__alt_data_end+0xfffae4e8>
   83ee4:	008007c4 	movi	r2,31
   83ee8:	11003c16 	blt	r2,r4,83fdc <__adddf3+0x5e4>
   83eec:	00800804 	movi	r2,32
   83ef0:	1105c83a 	sub	r2,r2,r4
   83ef4:	488e983a 	sll	r7,r9,r2
   83ef8:	310ad83a 	srl	r5,r6,r4
   83efc:	3084983a 	sll	r2,r6,r2
   83f00:	4912d83a 	srl	r9,r9,r4
   83f04:	394ab03a 	or	r5,r7,r5
   83f08:	1004c03a 	cmpne	r2,r2,zero
   83f0c:	288ab03a 	or	r5,r5,r2
   83f10:	003f5306 	br	83c60 <__alt_data_end+0xfffae530>
   83f14:	4448b03a 	or	r4,r8,r17
   83f18:	20003e26 	beq	r4,zero,84014 <__adddf3+0x61c>
   83f1c:	00c6303a 	nor	r3,zero,r3
   83f20:	18003a1e 	bne	r3,zero,8400c <__adddf3+0x614>
   83f24:	3463c83a 	sub	r17,r6,r17
   83f28:	4a07c83a 	sub	r3,r9,r8
   83f2c:	344d803a 	cmpltu	r6,r6,r17
   83f30:	1991c83a 	sub	r8,r3,r6
   83f34:	1021883a 	mov	r16,r2
   83f38:	3825883a 	mov	r18,r7
   83f3c:	003f0a06 	br	83b68 <__alt_data_end+0xfffae438>
   83f40:	2023883a 	mov	r17,r4
   83f44:	003f0d06 	br	83b7c <__alt_data_end+0xfffae44c>
   83f48:	0081ffc4 	movi	r2,2047
   83f4c:	80bf3f1e 	bne	r16,r2,83c4c <__alt_data_end+0xfffae51c>
   83f50:	003ec806 	br	83a74 <__alt_data_end+0xfffae344>
   83f54:	0005883a 	mov	r2,zero
   83f58:	003fb106 	br	83e20 <__alt_data_end+0xfffae6f0>
   83f5c:	0007883a 	mov	r3,zero
   83f60:	003fbc06 	br	83e54 <__alt_data_end+0xfffae724>
   83f64:	4444b03a 	or	r2,r8,r17
   83f68:	8000871e 	bne	r16,zero,84188 <__adddf3+0x790>
   83f6c:	1000ba26 	beq	r2,zero,84258 <__adddf3+0x860>
   83f70:	4984b03a 	or	r2,r9,r6
   83f74:	103ebf26 	beq	r2,zero,83a74 <__alt_data_end+0xfffae344>
   83f78:	8985883a 	add	r2,r17,r6
   83f7c:	4247883a 	add	r3,r8,r9
   83f80:	1451803a 	cmpltu	r8,r2,r17
   83f84:	40d1883a 	add	r8,r8,r3
   83f88:	40c0202c 	andhi	r3,r8,128
   83f8c:	1023883a 	mov	r17,r2
   83f90:	183f1a26 	beq	r3,zero,83bfc <__alt_data_end+0xfffae4cc>
   83f94:	00bfe034 	movhi	r2,65408
   83f98:	10bfffc4 	addi	r2,r2,-1
   83f9c:	2021883a 	mov	r16,r4
   83fa0:	4090703a 	and	r8,r8,r2
   83fa4:	003eb306 	br	83a74 <__alt_data_end+0xfffae344>
   83fa8:	4444b03a 	or	r2,r8,r17
   83fac:	8000291e 	bne	r16,zero,84054 <__adddf3+0x65c>
   83fb0:	10004b1e 	bne	r2,zero,840e0 <__adddf3+0x6e8>
   83fb4:	4990b03a 	or	r8,r9,r6
   83fb8:	40008b26 	beq	r8,zero,841e8 <__adddf3+0x7f0>
   83fbc:	4811883a 	mov	r8,r9
   83fc0:	3023883a 	mov	r17,r6
   83fc4:	3825883a 	mov	r18,r7
   83fc8:	003eaa06 	br	83a74 <__alt_data_end+0xfffae344>
   83fcc:	1021883a 	mov	r16,r2
   83fd0:	0011883a 	mov	r8,zero
   83fd4:	0005883a 	mov	r2,zero
   83fd8:	003f0f06 	br	83c18 <__alt_data_end+0xfffae4e8>
   83fdc:	217ff804 	addi	r5,r4,-32
   83fe0:	00800804 	movi	r2,32
   83fe4:	494ad83a 	srl	r5,r9,r5
   83fe8:	20807d26 	beq	r4,r2,841e0 <__adddf3+0x7e8>
   83fec:	00801004 	movi	r2,64
   83ff0:	1109c83a 	sub	r4,r2,r4
   83ff4:	4912983a 	sll	r9,r9,r4
   83ff8:	498cb03a 	or	r6,r9,r6
   83ffc:	300cc03a 	cmpne	r6,r6,zero
   84000:	298ab03a 	or	r5,r5,r6
   84004:	0013883a 	mov	r9,zero
   84008:	003f1506 	br	83c60 <__alt_data_end+0xfffae530>
   8400c:	0101ffc4 	movi	r4,2047
   84010:	113f9a1e 	bne	r2,r4,83e7c <__alt_data_end+0xfffae74c>
   84014:	4811883a 	mov	r8,r9
   84018:	3023883a 	mov	r17,r6
   8401c:	1021883a 	mov	r16,r2
   84020:	3825883a 	mov	r18,r7
   84024:	003e9306 	br	83a74 <__alt_data_end+0xfffae344>
   84028:	8000161e 	bne	r16,zero,84084 <__adddf3+0x68c>
   8402c:	444ab03a 	or	r5,r8,r17
   84030:	28005126 	beq	r5,zero,84178 <__adddf3+0x780>
   84034:	0108303a 	nor	r4,zero,r4
   84038:	20004d1e 	bne	r4,zero,84170 <__adddf3+0x778>
   8403c:	89a3883a 	add	r17,r17,r6
   84040:	4253883a 	add	r9,r8,r9
   84044:	898d803a 	cmpltu	r6,r17,r6
   84048:	3251883a 	add	r8,r6,r9
   8404c:	1021883a 	mov	r16,r2
   84050:	003f0806 	br	83c74 <__alt_data_end+0xfffae544>
   84054:	1000301e 	bne	r2,zero,84118 <__adddf3+0x720>
   84058:	4984b03a 	or	r2,r9,r6
   8405c:	10007126 	beq	r2,zero,84224 <__adddf3+0x82c>
   84060:	4811883a 	mov	r8,r9
   84064:	3023883a 	mov	r17,r6
   84068:	3825883a 	mov	r18,r7
   8406c:	0401ffc4 	movi	r16,2047
   84070:	003e8006 	br	83a74 <__alt_data_end+0xfffae344>
   84074:	4462b03a 	or	r17,r8,r17
   84078:	8822c03a 	cmpne	r17,r17,zero
   8407c:	0007883a 	mov	r3,zero
   84080:	003f8b06 	br	83eb0 <__alt_data_end+0xfffae780>
   84084:	0141ffc4 	movi	r5,2047
   84088:	11403b26 	beq	r2,r5,84178 <__adddf3+0x780>
   8408c:	0109c83a 	sub	r4,zero,r4
   84090:	42002034 	orhi	r8,r8,128
   84094:	01400e04 	movi	r5,56
   84098:	29006716 	blt	r5,r4,84238 <__adddf3+0x840>
   8409c:	014007c4 	movi	r5,31
   840a0:	29007016 	blt	r5,r4,84264 <__adddf3+0x86c>
   840a4:	01400804 	movi	r5,32
   840a8:	290bc83a 	sub	r5,r5,r4
   840ac:	4154983a 	sll	r10,r8,r5
   840b0:	890ed83a 	srl	r7,r17,r4
   840b4:	894a983a 	sll	r5,r17,r5
   840b8:	4108d83a 	srl	r4,r8,r4
   840bc:	51e2b03a 	or	r17,r10,r7
   840c0:	280ac03a 	cmpne	r5,r5,zero
   840c4:	8962b03a 	or	r17,r17,r5
   840c8:	89a3883a 	add	r17,r17,r6
   840cc:	2253883a 	add	r9,r4,r9
   840d0:	898d803a 	cmpltu	r6,r17,r6
   840d4:	3251883a 	add	r8,r6,r9
   840d8:	1021883a 	mov	r16,r2
   840dc:	003ee506 	br	83c74 <__alt_data_end+0xfffae544>
   840e0:	4984b03a 	or	r2,r9,r6
   840e4:	103e6326 	beq	r2,zero,83a74 <__alt_data_end+0xfffae344>
   840e8:	8987c83a 	sub	r3,r17,r6
   840ec:	88c9803a 	cmpltu	r4,r17,r3
   840f0:	4245c83a 	sub	r2,r8,r9
   840f4:	1105c83a 	sub	r2,r2,r4
   840f8:	1100202c 	andhi	r4,r2,128
   840fc:	203ebb26 	beq	r4,zero,83bec <__alt_data_end+0xfffae4bc>
   84100:	3463c83a 	sub	r17,r6,r17
   84104:	4a07c83a 	sub	r3,r9,r8
   84108:	344d803a 	cmpltu	r6,r6,r17
   8410c:	1991c83a 	sub	r8,r3,r6
   84110:	3825883a 	mov	r18,r7
   84114:	003e5706 	br	83a74 <__alt_data_end+0xfffae344>
   84118:	4984b03a 	or	r2,r9,r6
   8411c:	10002e26 	beq	r2,zero,841d8 <__adddf3+0x7e0>
   84120:	4004d0fa 	srli	r2,r8,3
   84124:	8822d0fa 	srli	r17,r17,3
   84128:	4010977a 	slli	r8,r8,29
   8412c:	10c0022c 	andhi	r3,r2,8
   84130:	4462b03a 	or	r17,r8,r17
   84134:	18000826 	beq	r3,zero,84158 <__adddf3+0x760>
   84138:	4808d0fa 	srli	r4,r9,3
   8413c:	20c0022c 	andhi	r3,r4,8
   84140:	1800051e 	bne	r3,zero,84158 <__adddf3+0x760>
   84144:	300cd0fa 	srli	r6,r6,3
   84148:	4806977a 	slli	r3,r9,29
   8414c:	2005883a 	mov	r2,r4
   84150:	3825883a 	mov	r18,r7
   84154:	19a2b03a 	or	r17,r3,r6
   84158:	8810d77a 	srli	r8,r17,29
   8415c:	100490fa 	slli	r2,r2,3
   84160:	882290fa 	slli	r17,r17,3
   84164:	0401ffc4 	movi	r16,2047
   84168:	4090b03a 	or	r8,r8,r2
   8416c:	003e4106 	br	83a74 <__alt_data_end+0xfffae344>
   84170:	0141ffc4 	movi	r5,2047
   84174:	117fc71e 	bne	r2,r5,84094 <__alt_data_end+0xfffae964>
   84178:	4811883a 	mov	r8,r9
   8417c:	3023883a 	mov	r17,r6
   84180:	1021883a 	mov	r16,r2
   84184:	003e3b06 	br	83a74 <__alt_data_end+0xfffae344>
   84188:	10002f26 	beq	r2,zero,84248 <__adddf3+0x850>
   8418c:	4984b03a 	or	r2,r9,r6
   84190:	10001126 	beq	r2,zero,841d8 <__adddf3+0x7e0>
   84194:	4004d0fa 	srli	r2,r8,3
   84198:	8822d0fa 	srli	r17,r17,3
   8419c:	4010977a 	slli	r8,r8,29
   841a0:	10c0022c 	andhi	r3,r2,8
   841a4:	4462b03a 	or	r17,r8,r17
   841a8:	183feb26 	beq	r3,zero,84158 <__alt_data_end+0xfffaea28>
   841ac:	4808d0fa 	srli	r4,r9,3
   841b0:	20c0022c 	andhi	r3,r4,8
   841b4:	183fe81e 	bne	r3,zero,84158 <__alt_data_end+0xfffaea28>
   841b8:	300cd0fa 	srli	r6,r6,3
   841bc:	4806977a 	slli	r3,r9,29
   841c0:	2005883a 	mov	r2,r4
   841c4:	19a2b03a 	or	r17,r3,r6
   841c8:	003fe306 	br	84158 <__alt_data_end+0xfffaea28>
   841cc:	0011883a 	mov	r8,zero
   841d0:	0005883a 	mov	r2,zero
   841d4:	003e3f06 	br	83ad4 <__alt_data_end+0xfffae3a4>
   841d8:	0401ffc4 	movi	r16,2047
   841dc:	003e2506 	br	83a74 <__alt_data_end+0xfffae344>
   841e0:	0013883a 	mov	r9,zero
   841e4:	003f8406 	br	83ff8 <__alt_data_end+0xfffae8c8>
   841e8:	0005883a 	mov	r2,zero
   841ec:	0007883a 	mov	r3,zero
   841f0:	003e8906 	br	83c18 <__alt_data_end+0xfffae4e8>
   841f4:	197ff804 	addi	r5,r3,-32
   841f8:	01000804 	movi	r4,32
   841fc:	414ad83a 	srl	r5,r8,r5
   84200:	19002426 	beq	r3,r4,84294 <__adddf3+0x89c>
   84204:	01001004 	movi	r4,64
   84208:	20c7c83a 	sub	r3,r4,r3
   8420c:	40c6983a 	sll	r3,r8,r3
   84210:	1c46b03a 	or	r3,r3,r17
   84214:	1806c03a 	cmpne	r3,r3,zero
   84218:	28e2b03a 	or	r17,r5,r3
   8421c:	0007883a 	mov	r3,zero
   84220:	003f2306 	br	83eb0 <__alt_data_end+0xfffae780>
   84224:	0007883a 	mov	r3,zero
   84228:	5811883a 	mov	r8,r11
   8422c:	00bfffc4 	movi	r2,-1
   84230:	0401ffc4 	movi	r16,2047
   84234:	003e7806 	br	83c18 <__alt_data_end+0xfffae4e8>
   84238:	4462b03a 	or	r17,r8,r17
   8423c:	8822c03a 	cmpne	r17,r17,zero
   84240:	0009883a 	mov	r4,zero
   84244:	003fa006 	br	840c8 <__alt_data_end+0xfffae998>
   84248:	4811883a 	mov	r8,r9
   8424c:	3023883a 	mov	r17,r6
   84250:	0401ffc4 	movi	r16,2047
   84254:	003e0706 	br	83a74 <__alt_data_end+0xfffae344>
   84258:	4811883a 	mov	r8,r9
   8425c:	3023883a 	mov	r17,r6
   84260:	003e0406 	br	83a74 <__alt_data_end+0xfffae344>
   84264:	21fff804 	addi	r7,r4,-32
   84268:	01400804 	movi	r5,32
   8426c:	41ced83a 	srl	r7,r8,r7
   84270:	21400a26 	beq	r4,r5,8429c <__adddf3+0x8a4>
   84274:	01401004 	movi	r5,64
   84278:	2909c83a 	sub	r4,r5,r4
   8427c:	4108983a 	sll	r4,r8,r4
   84280:	2448b03a 	or	r4,r4,r17
   84284:	2008c03a 	cmpne	r4,r4,zero
   84288:	3922b03a 	or	r17,r7,r4
   8428c:	0009883a 	mov	r4,zero
   84290:	003f8d06 	br	840c8 <__alt_data_end+0xfffae998>
   84294:	0007883a 	mov	r3,zero
   84298:	003fdd06 	br	84210 <__alt_data_end+0xfffaeae0>
   8429c:	0009883a 	mov	r4,zero
   842a0:	003ff706 	br	84280 <__alt_data_end+0xfffaeb50>

000842a4 <__divdf3>:
   842a4:	defff004 	addi	sp,sp,-64
   842a8:	dc800815 	stw	r18,32(sp)
   842ac:	2824d53a 	srli	r18,r5,20
   842b0:	dd800c15 	stw	r22,48(sp)
   842b4:	282cd7fa 	srli	r22,r5,31
   842b8:	dc000615 	stw	r16,24(sp)
   842bc:	04000434 	movhi	r16,16
   842c0:	843fffc4 	addi	r16,r16,-1
   842c4:	dfc00f15 	stw	ra,60(sp)
   842c8:	df000e15 	stw	fp,56(sp)
   842cc:	ddc00d15 	stw	r23,52(sp)
   842d0:	dd400b15 	stw	r21,44(sp)
   842d4:	dd000a15 	stw	r20,40(sp)
   842d8:	dcc00915 	stw	r19,36(sp)
   842dc:	dc400715 	stw	r17,28(sp)
   842e0:	9481ffcc 	andi	r18,r18,2047
   842e4:	2c20703a 	and	r16,r5,r16
   842e8:	b2003fcc 	andi	r8,r22,255
   842ec:	90006126 	beq	r18,zero,84474 <__divdf3+0x1d0>
   842f0:	0081ffc4 	movi	r2,2047
   842f4:	202b883a 	mov	r21,r4
   842f8:	90803726 	beq	r18,r2,843d8 <__divdf3+0x134>
   842fc:	80800434 	orhi	r2,r16,16
   84300:	100490fa 	slli	r2,r2,3
   84304:	2020d77a 	srli	r16,r4,29
   84308:	202a90fa 	slli	r21,r4,3
   8430c:	94bf0044 	addi	r18,r18,-1023
   84310:	80a0b03a 	or	r16,r16,r2
   84314:	0013883a 	mov	r9,zero
   84318:	000b883a 	mov	r5,zero
   8431c:	3806d53a 	srli	r3,r7,20
   84320:	382ed7fa 	srli	r23,r7,31
   84324:	04400434 	movhi	r17,16
   84328:	8c7fffc4 	addi	r17,r17,-1
   8432c:	18c1ffcc 	andi	r3,r3,2047
   84330:	3029883a 	mov	r20,r6
   84334:	3c62703a 	and	r17,r7,r17
   84338:	bf003fcc 	andi	fp,r23,255
   8433c:	18006e26 	beq	r3,zero,844f8 <__divdf3+0x254>
   84340:	0081ffc4 	movi	r2,2047
   84344:	18806626 	beq	r3,r2,844e0 <__divdf3+0x23c>
   84348:	88800434 	orhi	r2,r17,16
   8434c:	100490fa 	slli	r2,r2,3
   84350:	3022d77a 	srli	r17,r6,29
   84354:	302890fa 	slli	r20,r6,3
   84358:	18ff0044 	addi	r3,r3,-1023
   8435c:	88a2b03a 	or	r17,r17,r2
   84360:	000f883a 	mov	r7,zero
   84364:	b5e6f03a 	xor	r19,r22,r23
   84368:	3a4cb03a 	or	r6,r7,r9
   8436c:	008003c4 	movi	r2,15
   84370:	9809883a 	mov	r4,r19
   84374:	90c7c83a 	sub	r3,r18,r3
   84378:	9cc03fcc 	andi	r19,r19,255
   8437c:	11809636 	bltu	r2,r6,845d8 <__divdf3+0x334>
   84380:	300c90ba 	slli	r6,r6,2
   84384:	00800234 	movhi	r2,8
   84388:	1090e604 	addi	r2,r2,17304
   8438c:	308d883a 	add	r6,r6,r2
   84390:	30800017 	ldw	r2,0(r6)
   84394:	1000683a 	jmp	r2
   84398:	000845d8 	cmpnei	zero,zero,8471
   8439c:	00084410 	cmplti	zero,zero,8464
   843a0:	000845c8 	cmpgei	zero,zero,8471
   843a4:	00084404 	movi	zero,8464
   843a8:	000845c8 	cmpgei	zero,zero,8471
   843ac:	0008459c 	xori	zero,zero,8470
   843b0:	000845c8 	cmpgei	zero,zero,8471
   843b4:	00084404 	movi	zero,8464
   843b8:	00084410 	cmplti	zero,zero,8464
   843bc:	00084410 	cmplti	zero,zero,8464
   843c0:	0008459c 	xori	zero,zero,8470
   843c4:	00084404 	movi	zero,8464
   843c8:	000843f4 	movhi	zero,8463
   843cc:	000843f4 	movhi	zero,8463
   843d0:	000843f4 	movhi	zero,8463
   843d4:	00084960 	cmpeqi	zero,zero,8485
   843d8:	2404b03a 	or	r2,r4,r16
   843dc:	10006c1e 	bne	r2,zero,84590 <__divdf3+0x2ec>
   843e0:	02400204 	movi	r9,8
   843e4:	0021883a 	mov	r16,zero
   843e8:	002b883a 	mov	r21,zero
   843ec:	01400084 	movi	r5,2
   843f0:	003fca06 	br	8431c <__alt_data_end+0xfffaebec>
   843f4:	8023883a 	mov	r17,r16
   843f8:	a829883a 	mov	r20,r21
   843fc:	4039883a 	mov	fp,r8
   84400:	280f883a 	mov	r7,r5
   84404:	00800084 	movi	r2,2
   84408:	3881601e 	bne	r7,r2,8498c <__divdf3+0x6e8>
   8440c:	e027883a 	mov	r19,fp
   84410:	9900004c 	andi	r4,r19,1
   84414:	0081ffc4 	movi	r2,2047
   84418:	0021883a 	mov	r16,zero
   8441c:	002b883a 	mov	r21,zero
   84420:	1004953a 	slli	r2,r2,20
   84424:	20c03fcc 	andi	r3,r4,255
   84428:	01400434 	movhi	r5,16
   8442c:	297fffc4 	addi	r5,r5,-1
   84430:	180697fa 	slli	r3,r3,31
   84434:	8160703a 	and	r16,r16,r5
   84438:	80a0b03a 	or	r16,r16,r2
   8443c:	80c6b03a 	or	r3,r16,r3
   84440:	a805883a 	mov	r2,r21
   84444:	dfc00f17 	ldw	ra,60(sp)
   84448:	df000e17 	ldw	fp,56(sp)
   8444c:	ddc00d17 	ldw	r23,52(sp)
   84450:	dd800c17 	ldw	r22,48(sp)
   84454:	dd400b17 	ldw	r21,44(sp)
   84458:	dd000a17 	ldw	r20,40(sp)
   8445c:	dcc00917 	ldw	r19,36(sp)
   84460:	dc800817 	ldw	r18,32(sp)
   84464:	dc400717 	ldw	r17,28(sp)
   84468:	dc000617 	ldw	r16,24(sp)
   8446c:	dec01004 	addi	sp,sp,64
   84470:	f800283a 	ret
   84474:	2404b03a 	or	r2,r4,r16
   84478:	2023883a 	mov	r17,r4
   8447c:	10003f26 	beq	r2,zero,8457c <__divdf3+0x2d8>
   84480:	80015e26 	beq	r16,zero,849fc <__divdf3+0x758>
   84484:	8009883a 	mov	r4,r16
   84488:	d9800215 	stw	r6,8(sp)
   8448c:	d9c00515 	stw	r7,20(sp)
   84490:	da000415 	stw	r8,16(sp)
   84494:	00863c00 	call	863c0 <__clzsi2>
   84498:	d9800217 	ldw	r6,8(sp)
   8449c:	d9c00517 	ldw	r7,20(sp)
   844a0:	da000417 	ldw	r8,16(sp)
   844a4:	113ffd44 	addi	r4,r2,-11
   844a8:	00c00704 	movi	r3,28
   844ac:	19014f16 	blt	r3,r4,849ec <__divdf3+0x748>
   844b0:	00c00744 	movi	r3,29
   844b4:	157ffe04 	addi	r21,r2,-8
   844b8:	1907c83a 	sub	r3,r3,r4
   844bc:	8560983a 	sll	r16,r16,r21
   844c0:	88c6d83a 	srl	r3,r17,r3
   844c4:	8d6a983a 	sll	r21,r17,r21
   844c8:	1c20b03a 	or	r16,r3,r16
   844cc:	1080fcc4 	addi	r2,r2,1011
   844d0:	00a5c83a 	sub	r18,zero,r2
   844d4:	0013883a 	mov	r9,zero
   844d8:	000b883a 	mov	r5,zero
   844dc:	003f8f06 	br	8431c <__alt_data_end+0xfffaebec>
   844e0:	3444b03a 	or	r2,r6,r17
   844e4:	1000231e 	bne	r2,zero,84574 <__divdf3+0x2d0>
   844e8:	0023883a 	mov	r17,zero
   844ec:	0029883a 	mov	r20,zero
   844f0:	01c00084 	movi	r7,2
   844f4:	003f9b06 	br	84364 <__alt_data_end+0xfffaec34>
   844f8:	3444b03a 	or	r2,r6,r17
   844fc:	10001926 	beq	r2,zero,84564 <__divdf3+0x2c0>
   84500:	88014b26 	beq	r17,zero,84a30 <__divdf3+0x78c>
   84504:	8809883a 	mov	r4,r17
   84508:	d9400115 	stw	r5,4(sp)
   8450c:	d9800215 	stw	r6,8(sp)
   84510:	da000415 	stw	r8,16(sp)
   84514:	da400315 	stw	r9,12(sp)
   84518:	00863c00 	call	863c0 <__clzsi2>
   8451c:	d9400117 	ldw	r5,4(sp)
   84520:	d9800217 	ldw	r6,8(sp)
   84524:	da000417 	ldw	r8,16(sp)
   84528:	da400317 	ldw	r9,12(sp)
   8452c:	113ffd44 	addi	r4,r2,-11
   84530:	00c00704 	movi	r3,28
   84534:	19013a16 	blt	r3,r4,84a20 <__divdf3+0x77c>
   84538:	00c00744 	movi	r3,29
   8453c:	153ffe04 	addi	r20,r2,-8
   84540:	1907c83a 	sub	r3,r3,r4
   84544:	8d22983a 	sll	r17,r17,r20
   84548:	30c6d83a 	srl	r3,r6,r3
   8454c:	3528983a 	sll	r20,r6,r20
   84550:	1c62b03a 	or	r17,r3,r17
   84554:	1080fcc4 	addi	r2,r2,1011
   84558:	0087c83a 	sub	r3,zero,r2
   8455c:	000f883a 	mov	r7,zero
   84560:	003f8006 	br	84364 <__alt_data_end+0xfffaec34>
   84564:	0023883a 	mov	r17,zero
   84568:	0029883a 	mov	r20,zero
   8456c:	01c00044 	movi	r7,1
   84570:	003f7c06 	br	84364 <__alt_data_end+0xfffaec34>
   84574:	01c000c4 	movi	r7,3
   84578:	003f7a06 	br	84364 <__alt_data_end+0xfffaec34>
   8457c:	02400104 	movi	r9,4
   84580:	0021883a 	mov	r16,zero
   84584:	002b883a 	mov	r21,zero
   84588:	01400044 	movi	r5,1
   8458c:	003f6306 	br	8431c <__alt_data_end+0xfffaebec>
   84590:	02400304 	movi	r9,12
   84594:	014000c4 	movi	r5,3
   84598:	003f6006 	br	8431c <__alt_data_end+0xfffaebec>
   8459c:	04000434 	movhi	r16,16
   845a0:	0009883a 	mov	r4,zero
   845a4:	843fffc4 	addi	r16,r16,-1
   845a8:	057fffc4 	movi	r21,-1
   845ac:	0081ffc4 	movi	r2,2047
   845b0:	003f9b06 	br	84420 <__alt_data_end+0xfffaecf0>
   845b4:	00c00044 	movi	r3,1
   845b8:	1887c83a 	sub	r3,r3,r2
   845bc:	01000e04 	movi	r4,56
   845c0:	20c1530e 	bge	r4,r3,84b10 <__divdf3+0x86c>
   845c4:	9900004c 	andi	r4,r19,1
   845c8:	0005883a 	mov	r2,zero
   845cc:	0021883a 	mov	r16,zero
   845d0:	002b883a 	mov	r21,zero
   845d4:	003f9206 	br	84420 <__alt_data_end+0xfffaecf0>
   845d8:	8c012e36 	bltu	r17,r16,84a94 <__divdf3+0x7f0>
   845dc:	84412c26 	beq	r16,r17,84a90 <__divdf3+0x7ec>
   845e0:	a82f883a 	mov	r23,r21
   845e4:	18ffffc4 	addi	r3,r3,-1
   845e8:	002b883a 	mov	r21,zero
   845ec:	a004d63a 	srli	r2,r20,24
   845f0:	8822923a 	slli	r17,r17,8
   845f4:	a028923a 	slli	r20,r20,8
   845f8:	8009883a 	mov	r4,r16
   845fc:	88acb03a 	or	r22,r17,r2
   84600:	dd000015 	stw	r20,0(sp)
   84604:	b028d43a 	srli	r20,r22,16
   84608:	d8c00215 	stw	r3,8(sp)
   8460c:	b4bfffcc 	andi	r18,r22,65535
   84610:	a00b883a 	mov	r5,r20
   84614:	008298c0 	call	8298c <__udivsi3>
   84618:	100b883a 	mov	r5,r2
   8461c:	9009883a 	mov	r4,r18
   84620:	1023883a 	mov	r17,r2
   84624:	0082a480 	call	82a48 <__mulsi3>
   84628:	8009883a 	mov	r4,r16
   8462c:	a00b883a 	mov	r5,r20
   84630:	1039883a 	mov	fp,r2
   84634:	00829f00 	call	829f0 <__umodsi3>
   84638:	1004943a 	slli	r2,r2,16
   8463c:	b808d43a 	srli	r4,r23,16
   84640:	d8c00217 	ldw	r3,8(sp)
   84644:	2084b03a 	or	r2,r4,r2
   84648:	1700062e 	bgeu	r2,fp,84664 <__divdf3+0x3c0>
   8464c:	1585883a 	add	r2,r2,r22
   84650:	893fffc4 	addi	r4,r17,-1
   84654:	15811d36 	bltu	r2,r22,84acc <__divdf3+0x828>
   84658:	17011c2e 	bgeu	r2,fp,84acc <__divdf3+0x828>
   8465c:	8c7fff84 	addi	r17,r17,-2
   84660:	1585883a 	add	r2,r2,r22
   84664:	1739c83a 	sub	fp,r2,fp
   84668:	a00b883a 	mov	r5,r20
   8466c:	e009883a 	mov	r4,fp
   84670:	d8c00215 	stw	r3,8(sp)
   84674:	008298c0 	call	8298c <__udivsi3>
   84678:	100b883a 	mov	r5,r2
   8467c:	9009883a 	mov	r4,r18
   84680:	1021883a 	mov	r16,r2
   84684:	0082a480 	call	82a48 <__mulsi3>
   84688:	a00b883a 	mov	r5,r20
   8468c:	e009883a 	mov	r4,fp
   84690:	d8800415 	stw	r2,16(sp)
   84694:	00829f00 	call	829f0 <__umodsi3>
   84698:	1004943a 	slli	r2,r2,16
   8469c:	da000417 	ldw	r8,16(sp)
   846a0:	bdffffcc 	andi	r23,r23,65535
   846a4:	b884b03a 	or	r2,r23,r2
   846a8:	d8c00217 	ldw	r3,8(sp)
   846ac:	1200062e 	bgeu	r2,r8,846c8 <__divdf3+0x424>
   846b0:	1585883a 	add	r2,r2,r22
   846b4:	813fffc4 	addi	r4,r16,-1
   846b8:	15810236 	bltu	r2,r22,84ac4 <__divdf3+0x820>
   846bc:	1201012e 	bgeu	r2,r8,84ac4 <__divdf3+0x820>
   846c0:	843fff84 	addi	r16,r16,-2
   846c4:	1585883a 	add	r2,r2,r22
   846c8:	8822943a 	slli	r17,r17,16
   846cc:	d9800017 	ldw	r6,0(sp)
   846d0:	1211c83a 	sub	r8,r2,r8
   846d4:	8c22b03a 	or	r17,r17,r16
   846d8:	373fffcc 	andi	fp,r6,65535
   846dc:	8abfffcc 	andi	r10,r17,65535
   846e0:	8820d43a 	srli	r16,r17,16
   846e4:	5009883a 	mov	r4,r10
   846e8:	e00b883a 	mov	r5,fp
   846ec:	302ed43a 	srli	r23,r6,16
   846f0:	d8c00215 	stw	r3,8(sp)
   846f4:	da000415 	stw	r8,16(sp)
   846f8:	da800115 	stw	r10,4(sp)
   846fc:	0082a480 	call	82a48 <__mulsi3>
   84700:	800b883a 	mov	r5,r16
   84704:	e009883a 	mov	r4,fp
   84708:	d8800515 	stw	r2,20(sp)
   8470c:	0082a480 	call	82a48 <__mulsi3>
   84710:	8009883a 	mov	r4,r16
   84714:	b80b883a 	mov	r5,r23
   84718:	d8800315 	stw	r2,12(sp)
   8471c:	0082a480 	call	82a48 <__mulsi3>
   84720:	da800117 	ldw	r10,4(sp)
   84724:	b80b883a 	mov	r5,r23
   84728:	1021883a 	mov	r16,r2
   8472c:	5009883a 	mov	r4,r10
   84730:	0082a480 	call	82a48 <__mulsi3>
   84734:	d9c00517 	ldw	r7,20(sp)
   84738:	da400317 	ldw	r9,12(sp)
   8473c:	d8c00217 	ldw	r3,8(sp)
   84740:	3808d43a 	srli	r4,r7,16
   84744:	1245883a 	add	r2,r2,r9
   84748:	da000417 	ldw	r8,16(sp)
   8474c:	2085883a 	add	r2,r4,r2
   84750:	1240022e 	bgeu	r2,r9,8475c <__divdf3+0x4b8>
   84754:	01000074 	movhi	r4,1
   84758:	8121883a 	add	r16,r16,r4
   8475c:	1008d43a 	srli	r4,r2,16
   84760:	1004943a 	slli	r2,r2,16
   84764:	39ffffcc 	andi	r7,r7,65535
   84768:	2409883a 	add	r4,r4,r16
   8476c:	11c5883a 	add	r2,r2,r7
   84770:	4100bb36 	bltu	r8,r4,84a60 <__divdf3+0x7bc>
   84774:	4100d726 	beq	r8,r4,84ad4 <__divdf3+0x830>
   84778:	4109c83a 	sub	r4,r8,r4
   8477c:	a8a1c83a 	sub	r16,r21,r2
   84780:	ac2b803a 	cmpltu	r21,r21,r16
   84784:	256bc83a 	sub	r21,r4,r21
   84788:	b540d926 	beq	r22,r21,84af0 <__divdf3+0x84c>
   8478c:	a00b883a 	mov	r5,r20
   84790:	a809883a 	mov	r4,r21
   84794:	d8c00215 	stw	r3,8(sp)
   84798:	008298c0 	call	8298c <__udivsi3>
   8479c:	100b883a 	mov	r5,r2
   847a0:	9009883a 	mov	r4,r18
   847a4:	d8800515 	stw	r2,20(sp)
   847a8:	0082a480 	call	82a48 <__mulsi3>
   847ac:	a809883a 	mov	r4,r21
   847b0:	a00b883a 	mov	r5,r20
   847b4:	d8800415 	stw	r2,16(sp)
   847b8:	00829f00 	call	829f0 <__umodsi3>
   847bc:	1004943a 	slli	r2,r2,16
   847c0:	8008d43a 	srli	r4,r16,16
   847c4:	da000417 	ldw	r8,16(sp)
   847c8:	d8c00217 	ldw	r3,8(sp)
   847cc:	2084b03a 	or	r2,r4,r2
   847d0:	d9c00517 	ldw	r7,20(sp)
   847d4:	1200062e 	bgeu	r2,r8,847f0 <__divdf3+0x54c>
   847d8:	1585883a 	add	r2,r2,r22
   847dc:	393fffc4 	addi	r4,r7,-1
   847e0:	1580c536 	bltu	r2,r22,84af8 <__divdf3+0x854>
   847e4:	1200c42e 	bgeu	r2,r8,84af8 <__divdf3+0x854>
   847e8:	39ffff84 	addi	r7,r7,-2
   847ec:	1585883a 	add	r2,r2,r22
   847f0:	122bc83a 	sub	r21,r2,r8
   847f4:	a00b883a 	mov	r5,r20
   847f8:	a809883a 	mov	r4,r21
   847fc:	d8c00215 	stw	r3,8(sp)
   84800:	d9c00515 	stw	r7,20(sp)
   84804:	008298c0 	call	8298c <__udivsi3>
   84808:	9009883a 	mov	r4,r18
   8480c:	100b883a 	mov	r5,r2
   84810:	d8800415 	stw	r2,16(sp)
   84814:	0082a480 	call	82a48 <__mulsi3>
   84818:	a809883a 	mov	r4,r21
   8481c:	a00b883a 	mov	r5,r20
   84820:	1025883a 	mov	r18,r2
   84824:	00829f00 	call	829f0 <__umodsi3>
   84828:	1004943a 	slli	r2,r2,16
   8482c:	813fffcc 	andi	r4,r16,65535
   84830:	d8c00217 	ldw	r3,8(sp)
   84834:	20a0b03a 	or	r16,r4,r2
   84838:	d9c00517 	ldw	r7,20(sp)
   8483c:	da000417 	ldw	r8,16(sp)
   84840:	8480062e 	bgeu	r16,r18,8485c <__divdf3+0x5b8>
   84844:	85a1883a 	add	r16,r16,r22
   84848:	40bfffc4 	addi	r2,r8,-1
   8484c:	8580ac36 	bltu	r16,r22,84b00 <__divdf3+0x85c>
   84850:	8480ab2e 	bgeu	r16,r18,84b00 <__divdf3+0x85c>
   84854:	423fff84 	addi	r8,r8,-2
   84858:	85a1883a 	add	r16,r16,r22
   8485c:	3804943a 	slli	r2,r7,16
   84860:	84a1c83a 	sub	r16,r16,r18
   84864:	e009883a 	mov	r4,fp
   84868:	1228b03a 	or	r20,r2,r8
   8486c:	a1ffffcc 	andi	r7,r20,65535
   84870:	a024d43a 	srli	r18,r20,16
   84874:	380b883a 	mov	r5,r7
   84878:	d8c00215 	stw	r3,8(sp)
   8487c:	d9c00515 	stw	r7,20(sp)
   84880:	0082a480 	call	82a48 <__mulsi3>
   84884:	900b883a 	mov	r5,r18
   84888:	e009883a 	mov	r4,fp
   8488c:	102b883a 	mov	r21,r2
   84890:	0082a480 	call	82a48 <__mulsi3>
   84894:	900b883a 	mov	r5,r18
   84898:	b809883a 	mov	r4,r23
   8489c:	1039883a 	mov	fp,r2
   848a0:	0082a480 	call	82a48 <__mulsi3>
   848a4:	d9c00517 	ldw	r7,20(sp)
   848a8:	b80b883a 	mov	r5,r23
   848ac:	1025883a 	mov	r18,r2
   848b0:	3809883a 	mov	r4,r7
   848b4:	0082a480 	call	82a48 <__mulsi3>
   848b8:	a808d43a 	srli	r4,r21,16
   848bc:	1705883a 	add	r2,r2,fp
   848c0:	d8c00217 	ldw	r3,8(sp)
   848c4:	2085883a 	add	r2,r4,r2
   848c8:	1700022e 	bgeu	r2,fp,848d4 <__divdf3+0x630>
   848cc:	01000074 	movhi	r4,1
   848d0:	9125883a 	add	r18,r18,r4
   848d4:	1008d43a 	srli	r4,r2,16
   848d8:	1004943a 	slli	r2,r2,16
   848dc:	ad7fffcc 	andi	r21,r21,65535
   848e0:	2489883a 	add	r4,r4,r18
   848e4:	1545883a 	add	r2,r2,r21
   848e8:	81003836 	bltu	r16,r4,849cc <__divdf3+0x728>
   848ec:	81003626 	beq	r16,r4,849c8 <__divdf3+0x724>
   848f0:	a5000054 	ori	r20,r20,1
   848f4:	1880ffc4 	addi	r2,r3,1023
   848f8:	00bf2e0e 	bge	zero,r2,845b4 <__alt_data_end+0xfffaee84>
   848fc:	a10001cc 	andi	r4,r20,7
   84900:	20000726 	beq	r4,zero,84920 <__divdf3+0x67c>
   84904:	a10003cc 	andi	r4,r20,15
   84908:	01400104 	movi	r5,4
   8490c:	21400426 	beq	r4,r5,84920 <__divdf3+0x67c>
   84910:	a149883a 	add	r4,r20,r5
   84914:	2529803a 	cmpltu	r20,r4,r20
   84918:	8d23883a 	add	r17,r17,r20
   8491c:	2029883a 	mov	r20,r4
   84920:	8900402c 	andhi	r4,r17,256
   84924:	20000426 	beq	r4,zero,84938 <__divdf3+0x694>
   84928:	18810004 	addi	r2,r3,1024
   8492c:	00ffc034 	movhi	r3,65280
   84930:	18ffffc4 	addi	r3,r3,-1
   84934:	88e2703a 	and	r17,r17,r3
   84938:	00c1ff84 	movi	r3,2046
   8493c:	18beb416 	blt	r3,r2,84410 <__alt_data_end+0xfffaece0>
   84940:	a028d0fa 	srli	r20,r20,3
   84944:	882a977a 	slli	r21,r17,29
   84948:	8820927a 	slli	r16,r17,9
   8494c:	1081ffcc 	andi	r2,r2,2047
   84950:	ad2ab03a 	or	r21,r21,r20
   84954:	8020d33a 	srli	r16,r16,12
   84958:	9900004c 	andi	r4,r19,1
   8495c:	003eb006 	br	84420 <__alt_data_end+0xfffaecf0>
   84960:	8080022c 	andhi	r2,r16,8
   84964:	10001226 	beq	r2,zero,849b0 <__divdf3+0x70c>
   84968:	8880022c 	andhi	r2,r17,8
   8496c:	1000101e 	bne	r2,zero,849b0 <__divdf3+0x70c>
   84970:	00800434 	movhi	r2,16
   84974:	8c000234 	orhi	r16,r17,8
   84978:	10bfffc4 	addi	r2,r2,-1
   8497c:	b809883a 	mov	r4,r23
   84980:	80a0703a 	and	r16,r16,r2
   84984:	a02b883a 	mov	r21,r20
   84988:	003f0806 	br	845ac <__alt_data_end+0xfffaee7c>
   8498c:	008000c4 	movi	r2,3
   84990:	3880b126 	beq	r7,r2,84c58 <__divdf3+0x9b4>
   84994:	00800044 	movi	r2,1
   84998:	38805b1e 	bne	r7,r2,84b08 <__divdf3+0x864>
   8499c:	e009883a 	mov	r4,fp
   849a0:	0005883a 	mov	r2,zero
   849a4:	0021883a 	mov	r16,zero
   849a8:	002b883a 	mov	r21,zero
   849ac:	003e9c06 	br	84420 <__alt_data_end+0xfffaecf0>
   849b0:	00800434 	movhi	r2,16
   849b4:	84000234 	orhi	r16,r16,8
   849b8:	10bfffc4 	addi	r2,r2,-1
   849bc:	b009883a 	mov	r4,r22
   849c0:	80a0703a 	and	r16,r16,r2
   849c4:	003ef906 	br	845ac <__alt_data_end+0xfffaee7c>
   849c8:	103fca26 	beq	r2,zero,848f4 <__alt_data_end+0xfffaf1c4>
   849cc:	b421883a 	add	r16,r22,r16
   849d0:	a17fffc4 	addi	r5,r20,-1
   849d4:	8580422e 	bgeu	r16,r22,84ae0 <__divdf3+0x83c>
   849d8:	2829883a 	mov	r20,r5
   849dc:	813fc41e 	bne	r16,r4,848f0 <__alt_data_end+0xfffaf1c0>
   849e0:	d9800017 	ldw	r6,0(sp)
   849e4:	30bfc21e 	bne	r6,r2,848f0 <__alt_data_end+0xfffaf1c0>
   849e8:	003fc206 	br	848f4 <__alt_data_end+0xfffaf1c4>
   849ec:	143ff604 	addi	r16,r2,-40
   849f0:	8c20983a 	sll	r16,r17,r16
   849f4:	002b883a 	mov	r21,zero
   849f8:	003eb406 	br	844cc <__alt_data_end+0xfffaed9c>
   849fc:	d9800215 	stw	r6,8(sp)
   84a00:	d9c00515 	stw	r7,20(sp)
   84a04:	da000415 	stw	r8,16(sp)
   84a08:	00863c00 	call	863c0 <__clzsi2>
   84a0c:	10800804 	addi	r2,r2,32
   84a10:	da000417 	ldw	r8,16(sp)
   84a14:	d9c00517 	ldw	r7,20(sp)
   84a18:	d9800217 	ldw	r6,8(sp)
   84a1c:	003ea106 	br	844a4 <__alt_data_end+0xfffaed74>
   84a20:	147ff604 	addi	r17,r2,-40
   84a24:	3462983a 	sll	r17,r6,r17
   84a28:	0029883a 	mov	r20,zero
   84a2c:	003ec906 	br	84554 <__alt_data_end+0xfffaee24>
   84a30:	3009883a 	mov	r4,r6
   84a34:	d9400115 	stw	r5,4(sp)
   84a38:	d9800215 	stw	r6,8(sp)
   84a3c:	da000415 	stw	r8,16(sp)
   84a40:	da400315 	stw	r9,12(sp)
   84a44:	00863c00 	call	863c0 <__clzsi2>
   84a48:	10800804 	addi	r2,r2,32
   84a4c:	da400317 	ldw	r9,12(sp)
   84a50:	da000417 	ldw	r8,16(sp)
   84a54:	d9800217 	ldw	r6,8(sp)
   84a58:	d9400117 	ldw	r5,4(sp)
   84a5c:	003eb306 	br	8452c <__alt_data_end+0xfffaedfc>
   84a60:	d9800017 	ldw	r6,0(sp)
   84a64:	a9ab883a 	add	r21,r21,r6
   84a68:	a98b803a 	cmpltu	r5,r21,r6
   84a6c:	2d8b883a 	add	r5,r5,r22
   84a70:	2a11883a 	add	r8,r5,r8
   84a74:	897fffc4 	addi	r5,r17,-1
   84a78:	b2000c2e 	bgeu	r22,r8,84aac <__divdf3+0x808>
   84a7c:	41003f36 	bltu	r8,r4,84b7c <__divdf3+0x8d8>
   84a80:	22006c26 	beq	r4,r8,84c34 <__divdf3+0x990>
   84a84:	4109c83a 	sub	r4,r8,r4
   84a88:	2823883a 	mov	r17,r5
   84a8c:	003f3b06 	br	8477c <__alt_data_end+0xfffaf04c>
   84a90:	ad3ed336 	bltu	r21,r20,845e0 <__alt_data_end+0xfffaeeb0>
   84a94:	a804d07a 	srli	r2,r21,1
   84a98:	802e97fa 	slli	r23,r16,31
   84a9c:	a82a97fa 	slli	r21,r21,31
   84aa0:	8020d07a 	srli	r16,r16,1
   84aa4:	b8aeb03a 	or	r23,r23,r2
   84aa8:	003ed006 	br	845ec <__alt_data_end+0xfffaeebc>
   84aac:	b23ff51e 	bne	r22,r8,84a84 <__alt_data_end+0xfffaf354>
   84ab0:	d9800017 	ldw	r6,0(sp)
   84ab4:	a9bff12e 	bgeu	r21,r6,84a7c <__alt_data_end+0xfffaf34c>
   84ab8:	b109c83a 	sub	r4,r22,r4
   84abc:	2823883a 	mov	r17,r5
   84ac0:	003f2e06 	br	8477c <__alt_data_end+0xfffaf04c>
   84ac4:	2021883a 	mov	r16,r4
   84ac8:	003eff06 	br	846c8 <__alt_data_end+0xfffaef98>
   84acc:	2023883a 	mov	r17,r4
   84ad0:	003ee406 	br	84664 <__alt_data_end+0xfffaef34>
   84ad4:	a8bfe236 	bltu	r21,r2,84a60 <__alt_data_end+0xfffaf330>
   84ad8:	0009883a 	mov	r4,zero
   84adc:	003f2706 	br	8477c <__alt_data_end+0xfffaf04c>
   84ae0:	81002d36 	bltu	r16,r4,84b98 <__divdf3+0x8f4>
   84ae4:	24005626 	beq	r4,r16,84c40 <__divdf3+0x99c>
   84ae8:	2829883a 	mov	r20,r5
   84aec:	003f8006 	br	848f0 <__alt_data_end+0xfffaf1c0>
   84af0:	053fffc4 	movi	r20,-1
   84af4:	003f7f06 	br	848f4 <__alt_data_end+0xfffaf1c4>
   84af8:	200f883a 	mov	r7,r4
   84afc:	003f3c06 	br	847f0 <__alt_data_end+0xfffaf0c0>
   84b00:	1011883a 	mov	r8,r2
   84b04:	003f5506 	br	8485c <__alt_data_end+0xfffaf12c>
   84b08:	e027883a 	mov	r19,fp
   84b0c:	003f7906 	br	848f4 <__alt_data_end+0xfffaf1c4>
   84b10:	010007c4 	movi	r4,31
   84b14:	20c02816 	blt	r4,r3,84bb8 <__divdf3+0x914>
   84b18:	00800804 	movi	r2,32
   84b1c:	10c5c83a 	sub	r2,r2,r3
   84b20:	888a983a 	sll	r5,r17,r2
   84b24:	a0c8d83a 	srl	r4,r20,r3
   84b28:	a084983a 	sll	r2,r20,r2
   84b2c:	88e2d83a 	srl	r17,r17,r3
   84b30:	2906b03a 	or	r3,r5,r4
   84b34:	1004c03a 	cmpne	r2,r2,zero
   84b38:	1886b03a 	or	r3,r3,r2
   84b3c:	188001cc 	andi	r2,r3,7
   84b40:	10000726 	beq	r2,zero,84b60 <__divdf3+0x8bc>
   84b44:	188003cc 	andi	r2,r3,15
   84b48:	01000104 	movi	r4,4
   84b4c:	11000426 	beq	r2,r4,84b60 <__divdf3+0x8bc>
   84b50:	1805883a 	mov	r2,r3
   84b54:	10c00104 	addi	r3,r2,4
   84b58:	1885803a 	cmpltu	r2,r3,r2
   84b5c:	88a3883a 	add	r17,r17,r2
   84b60:	8880202c 	andhi	r2,r17,128
   84b64:	10002926 	beq	r2,zero,84c0c <__divdf3+0x968>
   84b68:	9900004c 	andi	r4,r19,1
   84b6c:	00800044 	movi	r2,1
   84b70:	0021883a 	mov	r16,zero
   84b74:	002b883a 	mov	r21,zero
   84b78:	003e2906 	br	84420 <__alt_data_end+0xfffaecf0>
   84b7c:	d9800017 	ldw	r6,0(sp)
   84b80:	8c7fff84 	addi	r17,r17,-2
   84b84:	a9ab883a 	add	r21,r21,r6
   84b88:	a98b803a 	cmpltu	r5,r21,r6
   84b8c:	2d8b883a 	add	r5,r5,r22
   84b90:	2a11883a 	add	r8,r5,r8
   84b94:	003ef806 	br	84778 <__alt_data_end+0xfffaf048>
   84b98:	d9800017 	ldw	r6,0(sp)
   84b9c:	318f883a 	add	r7,r6,r6
   84ba0:	398b803a 	cmpltu	r5,r7,r6
   84ba4:	2d8d883a 	add	r6,r5,r22
   84ba8:	81a1883a 	add	r16,r16,r6
   84bac:	a17fff84 	addi	r5,r20,-2
   84bb0:	d9c00015 	stw	r7,0(sp)
   84bb4:	003f8806 	br	849d8 <__alt_data_end+0xfffaf2a8>
   84bb8:	013ff844 	movi	r4,-31
   84bbc:	2085c83a 	sub	r2,r4,r2
   84bc0:	8888d83a 	srl	r4,r17,r2
   84bc4:	00800804 	movi	r2,32
   84bc8:	18802126 	beq	r3,r2,84c50 <__divdf3+0x9ac>
   84bcc:	04001004 	movi	r16,64
   84bd0:	80c7c83a 	sub	r3,r16,r3
   84bd4:	88e0983a 	sll	r16,r17,r3
   84bd8:	8504b03a 	or	r2,r16,r20
   84bdc:	1004c03a 	cmpne	r2,r2,zero
   84be0:	2084b03a 	or	r2,r4,r2
   84be4:	144001cc 	andi	r17,r2,7
   84be8:	88000d1e 	bne	r17,zero,84c20 <__divdf3+0x97c>
   84bec:	0021883a 	mov	r16,zero
   84bf0:	102ad0fa 	srli	r21,r2,3
   84bf4:	9900004c 	andi	r4,r19,1
   84bf8:	0005883a 	mov	r2,zero
   84bfc:	ac6ab03a 	or	r21,r21,r17
   84c00:	003e0706 	br	84420 <__alt_data_end+0xfffaecf0>
   84c04:	1007883a 	mov	r3,r2
   84c08:	0023883a 	mov	r17,zero
   84c0c:	8820927a 	slli	r16,r17,9
   84c10:	1805883a 	mov	r2,r3
   84c14:	8822977a 	slli	r17,r17,29
   84c18:	8020d33a 	srli	r16,r16,12
   84c1c:	003ff406 	br	84bf0 <__alt_data_end+0xfffaf4c0>
   84c20:	10c003cc 	andi	r3,r2,15
   84c24:	01000104 	movi	r4,4
   84c28:	193ff626 	beq	r3,r4,84c04 <__alt_data_end+0xfffaf4d4>
   84c2c:	0023883a 	mov	r17,zero
   84c30:	003fc806 	br	84b54 <__alt_data_end+0xfffaf424>
   84c34:	a8bfd136 	bltu	r21,r2,84b7c <__alt_data_end+0xfffaf44c>
   84c38:	2823883a 	mov	r17,r5
   84c3c:	003fa606 	br	84ad8 <__alt_data_end+0xfffaf3a8>
   84c40:	d9800017 	ldw	r6,0(sp)
   84c44:	30bfd436 	bltu	r6,r2,84b98 <__alt_data_end+0xfffaf468>
   84c48:	2829883a 	mov	r20,r5
   84c4c:	003f6406 	br	849e0 <__alt_data_end+0xfffaf2b0>
   84c50:	0021883a 	mov	r16,zero
   84c54:	003fe006 	br	84bd8 <__alt_data_end+0xfffaf4a8>
   84c58:	00800434 	movhi	r2,16
   84c5c:	8c000234 	orhi	r16,r17,8
   84c60:	10bfffc4 	addi	r2,r2,-1
   84c64:	e009883a 	mov	r4,fp
   84c68:	80a0703a 	and	r16,r16,r2
   84c6c:	a02b883a 	mov	r21,r20
   84c70:	003e4e06 	br	845ac <__alt_data_end+0xfffaee7c>

00084c74 <__gedf2>:
   84c74:	2804d53a 	srli	r2,r5,20
   84c78:	3806d53a 	srli	r3,r7,20
   84c7c:	02000434 	movhi	r8,16
   84c80:	423fffc4 	addi	r8,r8,-1
   84c84:	1081ffcc 	andi	r2,r2,2047
   84c88:	0241ffc4 	movi	r9,2047
   84c8c:	2a14703a 	and	r10,r5,r8
   84c90:	18c1ffcc 	andi	r3,r3,2047
   84c94:	3a10703a 	and	r8,r7,r8
   84c98:	280ad7fa 	srli	r5,r5,31
   84c9c:	380ed7fa 	srli	r7,r7,31
   84ca0:	12401d26 	beq	r2,r9,84d18 <__gedf2+0xa4>
   84ca4:	0241ffc4 	movi	r9,2047
   84ca8:	1a401226 	beq	r3,r9,84cf4 <__gedf2+0x80>
   84cac:	1000081e 	bne	r2,zero,84cd0 <__gedf2+0x5c>
   84cb0:	2296b03a 	or	r11,r4,r10
   84cb4:	5813003a 	cmpeq	r9,r11,zero
   84cb8:	1800091e 	bne	r3,zero,84ce0 <__gedf2+0x6c>
   84cbc:	3218b03a 	or	r12,r6,r8
   84cc0:	6000071e 	bne	r12,zero,84ce0 <__gedf2+0x6c>
   84cc4:	0005883a 	mov	r2,zero
   84cc8:	5800101e 	bne	r11,zero,84d0c <__gedf2+0x98>
   84ccc:	f800283a 	ret
   84cd0:	18000c1e 	bne	r3,zero,84d04 <__gedf2+0x90>
   84cd4:	3212b03a 	or	r9,r6,r8
   84cd8:	48000c26 	beq	r9,zero,84d0c <__gedf2+0x98>
   84cdc:	0013883a 	mov	r9,zero
   84ce0:	39c03fcc 	andi	r7,r7,255
   84ce4:	48000826 	beq	r9,zero,84d08 <__gedf2+0x94>
   84ce8:	38000926 	beq	r7,zero,84d10 <__gedf2+0x9c>
   84cec:	00800044 	movi	r2,1
   84cf0:	f800283a 	ret
   84cf4:	3212b03a 	or	r9,r6,r8
   84cf8:	483fec26 	beq	r9,zero,84cac <__alt_data_end+0xfffaf57c>
   84cfc:	00bfff84 	movi	r2,-2
   84d00:	f800283a 	ret
   84d04:	39c03fcc 	andi	r7,r7,255
   84d08:	29c00626 	beq	r5,r7,84d24 <__gedf2+0xb0>
   84d0c:	283ff726 	beq	r5,zero,84cec <__alt_data_end+0xfffaf5bc>
   84d10:	00bfffc4 	movi	r2,-1
   84d14:	f800283a 	ret
   84d18:	2292b03a 	or	r9,r4,r10
   84d1c:	483fe126 	beq	r9,zero,84ca4 <__alt_data_end+0xfffaf574>
   84d20:	003ff606 	br	84cfc <__alt_data_end+0xfffaf5cc>
   84d24:	18bff916 	blt	r3,r2,84d0c <__alt_data_end+0xfffaf5dc>
   84d28:	10c00316 	blt	r2,r3,84d38 <__gedf2+0xc4>
   84d2c:	42bff736 	bltu	r8,r10,84d0c <__alt_data_end+0xfffaf5dc>
   84d30:	52000326 	beq	r10,r8,84d40 <__gedf2+0xcc>
   84d34:	5200042e 	bgeu	r10,r8,84d48 <__gedf2+0xd4>
   84d38:	283fec1e 	bne	r5,zero,84cec <__alt_data_end+0xfffaf5bc>
   84d3c:	003ff406 	br	84d10 <__alt_data_end+0xfffaf5e0>
   84d40:	313ff236 	bltu	r6,r4,84d0c <__alt_data_end+0xfffaf5dc>
   84d44:	21bffc36 	bltu	r4,r6,84d38 <__alt_data_end+0xfffaf608>
   84d48:	0005883a 	mov	r2,zero
   84d4c:	f800283a 	ret

00084d50 <__ledf2>:
   84d50:	2804d53a 	srli	r2,r5,20
   84d54:	3810d53a 	srli	r8,r7,20
   84d58:	00c00434 	movhi	r3,16
   84d5c:	18ffffc4 	addi	r3,r3,-1
   84d60:	1081ffcc 	andi	r2,r2,2047
   84d64:	0241ffc4 	movi	r9,2047
   84d68:	28d4703a 	and	r10,r5,r3
   84d6c:	4201ffcc 	andi	r8,r8,2047
   84d70:	38c6703a 	and	r3,r7,r3
   84d74:	280ad7fa 	srli	r5,r5,31
   84d78:	380ed7fa 	srli	r7,r7,31
   84d7c:	12401f26 	beq	r2,r9,84dfc <__ledf2+0xac>
   84d80:	0241ffc4 	movi	r9,2047
   84d84:	42401426 	beq	r8,r9,84dd8 <__ledf2+0x88>
   84d88:	1000091e 	bne	r2,zero,84db0 <__ledf2+0x60>
   84d8c:	2296b03a 	or	r11,r4,r10
   84d90:	5813003a 	cmpeq	r9,r11,zero
   84d94:	29403fcc 	andi	r5,r5,255
   84d98:	40000a1e 	bne	r8,zero,84dc4 <__ledf2+0x74>
   84d9c:	30d8b03a 	or	r12,r6,r3
